Microchip MPLAB XC8 Compiler V2.32

Linker command line:

-W-3 --edf=C:\Program Files\Microchip\xc8\v2.32\pic\dat\en_msgs.txt -cn \
  -h+dist/default/debug\Test.X.debug.sym \
  --cmf=dist/default/debug\Test.X.debug.cmf -z -Q18F24K22 \
  -oC:\Users\srubi\AppData\Local\Temp\xcAs1j4.4 --defsym=__MPLAB_BUILD=1 \
  -Mdist/default/debug/Test.X.debug.map -E1 -ver=XC8 Compiler --acfsm=1493 \
  -ASTACK=060h-02FFh -pstack=STACK -ACODE=00h-03FFFh -ACONST=00h-03FFFh \
  -ASMALLCONST=0300h-03FFhx61 -AMEDIUMCONST=0300h-03FFFh -ACOMRAM=01h-05Fh \
  -AABS1=00h-02FFh -ABIGRAM=01h-02FFh -ARAM=060h-0FFh,0100h-01FFhx2 \
  -ABANK0=060h-0FFh -ABANK1=0100h-01FFh -ABANK2=0200h-02FFh \
  -ASFR=0F38h-0F5Fh,0F60h-0FFFh -ACONFIG=0300000h-030000Dh \
  -AIDLOC=0200000h-0200007h -AEEDATA=0F00000h-0F000FFh -peeprom_data=EEDATA \
  -preset_vec=00h,intcode,intcodelo,powerup,init -pramtop=0300h \
  -psmallconst=SMALLCONST -pmediumconst=MEDIUMCONST -pconst=CONST \
  -AFARRAM=00h-00h \
  -prdata=COMRAM,nvrram=COMRAM,nvbit=COMRAM,rbss=COMRAM,rbit=COMRAM \
  -pfarbss=FARRAM,fardata=FARRAM,nvFARRAM=FARRAM \
  -pintsave_regs=BIGRAM,bigbss=BIGRAM,bigdata=BIGRAM -pbss=RAM \
  -pidata=CODE,irdata=CODE,ibigdata=CODE,ifardata=CODE -prparam=COMRAM \
  C:\Users\srubi\AppData\Local\Temp\xcAs1j4.o \
  dist/default/debug\Test.X.debug.o 

Object code version is 3.11

Machine type is 18F24K22



                Name                               Link     Load   Length Selector   Space Scale
C:\Users\srubi\AppData\Local\Temp\xcAs1j4.o
                idloc                            200000   200000        8        0       5
                config                           300000   300000        E        0       4
                init                                  0        0        4        0       0
dist/default/debug\Test.X.debug.o
                idloc                            200000   200000        8        0       5
                config                           300000   300000        E        0       4
                text16                             2FD4     2FD4       3A     17EA       0
                text15                             2F70     2F70       32     17B8       0
                text14                             2FA2     2FA2       32     17D1       0
                text13                             2F14     2F14       16     178A       0
                text12                             2EC2     2EC2        E     1761       0
                text11                             2F44     2F44       2C     17A2       0
                text10                             2EEC     2EEC       14     1776       0
                text9                              2F00     2F00       14     1780       0
                text8                              2ED0     2ED0        E     1768       0
                text7                              2F2A     2F2A       1A     1795       0
                text6                              3054     3054      104     182A       0
                text5                              3716     3716      42A     1B8B       0
                text4                              3B40     3B40      4C0     1DA0       0
                text3                              300E     300E       46     1807       0
                text2                              3158     3158      106     18AC       0
                text1                              325E     325E      1B4     192F       0
                text0                              3412     3412      304     1A09       0
                cstackCOMRAM                          1        1       58        1       1
                bssCOMRAM                            59       59        2        1       1
                cinit                              2EDE     2EDE        E     176F       0

TOTAL           Name                               Link     Load   Length     Space
        CLASS   STACK          

        CLASS   CODE           
                init                                  0        0        4         0
                text16                             2FD4     2FD4       3A         0
                text15                             2F70     2F70       32         0
                text14                             2FA2     2FA2       32         0
                text13                             2F14     2F14       16         0
                text12                             2EC2     2EC2        E         0
                text11                             2F44     2F44       2C         0
                text10                             2EEC     2EEC       14         0
                text9                              2F00     2F00       14         0
                text8                              2ED0     2ED0        E         0
                text7                              2F2A     2F2A       1A         0
                text6                              3054     3054      104         0
                text5                              3716     3716      42A         0
                text4                              3B40     3B40      4C0         0
                text3                              300E     300E       46         0
                text2                              3158     3158      106         0
                text1                              325E     325E      1B4         0
                text0                              3412     3412      304         0
                cinit                              2EDE     2EDE        E         0

        CLASS   CONST          

        CLASS   SMALLCONST     

        CLASS   MEDIUMCONST    

        CLASS   COMRAM         
                cstackCOMRAM                          1        1       58         1
                bssCOMRAM                            59       59        2         1

        CLASS   ABS1           

        CLASS   BIGRAM         

        CLASS   RAM            

        CLASS   BANK0          

        CLASS   BANK1          

        CLASS   BANK2          

        CLASS   SFR            

        CLASS   CONFIG         
                config                           300000   300000        E         4

        CLASS   IDLOC          
                idloc                            200000   200000        8         5

        CLASS   EEDATA         

        CLASS   FARRAM         



SEGMENTS        Name                           Load    Length   Top    Selector   Space  Class

                reset_vec                      000000  000004  000004         0       0  CODE    
                cstackCOMRAM                   000001  00005A  00005B         1       1  COMRAM  
                text12                         002EC2  00000E  002ED0      1761       0  CODE    
                text8                          002ED0  00000E  002EDE      1768       0  CODE    
                cinit                          002EDE  00000E  002EEC      176F       0  CODE    
                text10                         002EEC  000014  002F00      1776       0  CODE    
                text9                          002F00  000014  002F14      1780       0  CODE    
                text13                         002F14  000016  002F2A      178A       0  CODE    
                text7                          002F2A  00001A  002F44      1795       0  CODE    
                text11                         002F44  00002C  002F70      17A2       0  CODE    
                text15                         002F70  000032  002FA2      17B8       0  CODE    
                text14                         002FA2  000032  002FD4      17D1       0  CODE    
                text16                         002FD4  00003A  00300E      17EA       0  CODE    
                text3                          00300E  000046  003054      1807       0  CODE    
                text6                          003054  000104  003158      182A       0  CODE    
                text2                          003158  000106  00325E      18AC       0  CODE    
                text1                          00325E  0001B4  003412      192F       0  CODE    
                text0                          003412  000304  003716      1A09       0  CODE    
                text5                          003716  00042A  003B40      1B8B       0  CODE    
                text4                          003B40  0004C0  004000      1DA0       0  CODE    


UNUSED ADDRESS RANGES

        Name                Unused          Largest block    Delta
        BANK0            000060-0000FF               A0
        BANK1            000100-0001FF              100
        BANK2            000200-0002FF              100
        BIGRAM           00005B-0002FF              2A5
        CODE             000004-002EC1             2EBE
        COMRAM           00005B-00005F                5
        CONST            000004-002EC1             2EBE
        EEDATA           F00000-F000FF              100
        MEDIUMCONST      000300-002EC1             2BC2
        RAM              000060-0002FF              100
        SFR              000F38-000FFF               28
        SMALLCONST       000300-002EC1              100
        STACK            000060-0002FF              2A0

                                  Symbol Table

?_ADC_GetConversion              cstackCOMRAM 000001
?___fladd                        cstackCOMRAM 00000F
?___flmul                        cstackCOMRAM 000027
?___flsub                        cstackCOMRAM 00001F
?___fltol                        cstackCOMRAM 000040
?___xxtofl                       cstackCOMRAM 000001
ADC_GetConversion@channel        cstackCOMRAM 000005
PWM4_LoadDutyValue@dutyValue     cstackCOMRAM 000001
PWM5_LoadDutyValue@dutyValue     cstackCOMRAM 000001
_ADCON0                          (abs)        000FC2
_ADCON0bits                      (abs)        000FC2
_ADCON1                          (abs)        000FC1
_ADCON2                          (abs)        000FC0
_ADC_GetConversion               text16       002FD4
_ADC_Initialize                  text13       002F14
_ADC_InterruptHandler            bssCOMRAM    000059
_ADRESH                          (abs)        000FC4
_ADRESL                          (abs)        000FC3
_ANSELA                          (abs)        000F38
_ANSELB                          (abs)        000F39
_ANSELC                          (abs)        000F3A
_CCP4CON                         (abs)        000F57
_CCP5CON                         (abs)        000F54
_CCPR4H                          (abs)        000F59
_CCPR4L                          (abs)        000F58
_CCPR5H                          (abs)        000F56
_CCPR5L                          (abs)        000F55
_CCPTMRS1bits                    (abs)        000F48
_INTCON2bits                     (abs)        000FF1
_INTCONbits                      (abs)        000FF2
_LATA                            (abs)        000F89
_LATB                            (abs)        000F8A
_LATC                            (abs)        000F8B
_OSCCON                          (abs)        000FD3
_OSCCON2                         (abs)        000FD2
_OSCILLATOR_Initialize           text12       002EC2
_OSCTUNE                         (abs)        000F9B
_PIN_MANAGER_Initialize          text11       002F44
_PIR1bits                        (abs)        000F9E
_PR2                             (abs)        000FBB
_PWM4_Initialize                 text10       002EEC
_PWM4_LoadDutyValue              text15       002F70
_PWM5_Initialize                 text9        002F00
_PWM5_LoadDutyValue              text14       002FA2
_SYSTEM_Initialize               text7        002F2A
_T2CON                           (abs)        000FBA
_T2CONbits                       (abs)        000FBA
_TMR2                            (abs)        000FBC
_TMR2_Initialize                 text8        002ED0
_TRISA                           (abs)        000F92
_TRISB                           (abs)        000F93
_TRISC                           (abs)        000F94
_WPUB                            (abs)        000F61
__HRAM                           (abs)        000000
__Habs1                          abs1         000000
__Hbank0                         bank0        000000
__Hbank1                         bank1        000000
__Hbank2                         bank2        000000
__Hbigbss                        bigbss       000000
__Hbigdata                       bigdata      000000
__Hbigram                        bigram       000000
__Hbss                           bss          000000
__HbssCOMRAM                     bssCOMRAM    000000
__Hcinit                         cinit        000000
__Hclrtext                       clrtext      000000
__Hcomram                        comram       000000
__Hconfig                        config       30000E
__Hconst                         const        000000
__HcstackCOMRAM                  cstackCOMRAM 000000
__Hdata                          data         000000
__Heeprom_data                   eeprom_data  000000
__Hfarbss                        farbss       000000
__Hfardata                       fardata      000000
__Hibigdata                      ibigdata     000000
__Hidata                         idata        000000
__Hidloc                         idloc        200008
__Hifardata                      ifardata     000000
__Hinit                          init         000004
__Hintcode                       intcode      000000
__Hintcode_body                  intcode_body 000000
__Hintcodelo                     intcodelo    000000
__Hintentry                      intentry     000000
__Hintret                        intret       000000
__Hintsave_regs                  intsave_regs 000000
__Hirdata                        irdata       000000
__Hmediumconst                   mediumconst  000000
__HnvFARRAM                      nvFARRAM     000000
__Hnvbit                         nvbit        000000
__Hnvrram                        nvrram       000000
__Hparam                         rparam       000000
__Hpowerup                       powerup      000000
__Hram                           ram          000000
__Hramtop                        ramtop       000300
__Hrbit                          rbit         000000
__Hrbss                          rbss         000000
__Hrdata                         rdata        000000
__Hreset_vec                     reset_vec    000000
__Hrparam                        rparam       000000
__Hsfr                           sfr          000000
__Hsmallconst                    smallconst   000000
__Hspace_0                       (abs)        004000
__Hspace_1                       (abs)        00005B
__Hspace_2                       (abs)        000000
__Hspace_4                       (abs)        60000E
__Hstack                         stack        000000
__Hstruct                        struct       000000
__Htemp                          temp         000000
__Htext                          text         000000
__Htext0                         text0        000000
__Htext1                         text1        000000
__Htext10                        text10       000000
__Htext11                        text11       000000
__Htext12                        text12       000000
__Htext13                        text13       000000
__Htext14                        text14       000000
__Htext15                        text15       000000
__Htext16                        text16       000000
__Htext2                         text2        000000
__Htext3                         text3        000000
__Htext4                         text4        000000
__Htext5                         text5        000000
__Htext6                         text6        000000
__Htext7                         text7        000000
__Htext8                         text8        000000
__Htext9                         text9        000000
__LRAM                           (abs)        000001
__Labs1                          abs1         000000
__Lbank0                         bank0        000000
__Lbank1                         bank1        000000
__Lbank2                         bank2        000000
__Lbigbss                        bigbss       000000
__Lbigdata                       bigdata      000000
__Lbigram                        bigram       000000
__Lbss                           bss          000000
__LbssCOMRAM                     bssCOMRAM    000000
__Lcinit                         cinit        000000
__Lclrtext                       clrtext      000000
__Lcomram                        comram       000000
__Lconfig                        config       000000
__Lconst                         const        000000
__LcstackCOMRAM                  cstackCOMRAM 000000
__Ldata                          data         000000
__Leeprom_data                   eeprom_data  000000
__Lfarbss                        farbss       000000
__Lfardata                       fardata      000000
__Libigdata                      ibigdata     000000
__Lidata                         idata        000000
__Lidloc                         idloc        000000
__Lifardata                      ifardata     000000
__Linit                          init         000000
__Lintcode                       intcode      000000
__Lintcode_body                  intcode_body 000000
__Lintcodelo                     intcodelo    000000
__Lintentry                      intentry     000000
__Lintret                        intret       000000
__Lintsave_regs                  intsave_regs 000000
__Lirdata                        irdata       000000
__Lmediumconst                   mediumconst  000000
__LnvFARRAM                      nvFARRAM     000000
__Lnvbit                         nvbit        000000
__Lnvrram                        nvrram       000000
__Lparam                         rparam       000000
__Lpowerup                       powerup      000000
__Lram                           ram          000000
__Lramtop                        ramtop       000300
__Lrbit                          rbit         000000
__Lrbss                          rbss         000000
__Lrdata                         rdata        000000
__Lreset_vec                     reset_vec    000000
__Lrparam                        rparam       000000
__Lsfr                           sfr          000000
__Lsmallconst                    smallconst   000000
__Lspace_0                       (abs)        000000
__Lspace_1                       (abs)        000000
__Lspace_2                       (abs)        000000
__Lspace_4                       (abs)        000000
__Lstack                         stack        000000
__Lstruct                        struct       000000
__Ltemp                          temp         000000
__Ltext                          text         000000
__Ltext0                         text0        000000
__Ltext1                         text1        000000
__Ltext10                        text10       000000
__Ltext11                        text11       000000
__Ltext12                        text12       000000
__Ltext13                        text13       000000
__Ltext14                        text14       000000
__Ltext15                        text15       000000
__Ltext16                        text16       000000
__Ltext2                         text2        000000
__Ltext3                         text3        000000
__Ltext4                         text4        000000
__Ltext5                         text5        000000
__Ltext6                         text6        000000
__Ltext7                         text7        000000
__Ltext8                         text8        000000
__Ltext9                         text9        000000
__S0                             (abs)        004000
__S1                             (abs)        00005B
__S2                             (abs)        000000
__S4                             (abs)        000000
__S5                             (abs)        000000
___fladd                         text4        003B40
___fladd@a                       cstackCOMRAM 000013
___fladd@aexp                    cstackCOMRAM 00001C
___fladd@b                       cstackCOMRAM 00000F
___fladd@bexp                    cstackCOMRAM 00001D
___fladd@grs                     cstackCOMRAM 00001E
___fladd@signs                   cstackCOMRAM 00001B
___flge                          text6        003054
___flge@ff1                      cstackCOMRAM 00000F
___flge@ff2                      cstackCOMRAM 000013
___flmul                         text5        003716
___flmul@a                       cstackCOMRAM 00002B
___flmul@aexp                    cstackCOMRAM 000038
___flmul@b                       cstackCOMRAM 000027
___flmul@bexp                    cstackCOMRAM 000039
___flmul@grs                     cstackCOMRAM 000034
___flmul@prod                    cstackCOMRAM 00003A
___flmul@sign                    cstackCOMRAM 000033
___flmul@temp                    cstackCOMRAM 00003E
___flsub                         text3        00300E
___flsub@a                       cstackCOMRAM 000023
___flsub@b                       cstackCOMRAM 00001F
___fltol                         text2        003158
___fltol@exp1                    cstackCOMRAM 000049
___fltol@f1                      cstackCOMRAM 000040
___fltol@sign1                   cstackCOMRAM 000048
___inthi_sp                      stack        000000
___intlo_sp                      stack        000000
___param_bank                    (abs)        000000
___rparam_used                   (abs)        000001
___sp                            stack        000000
___xxtofl                        text1        00325E
___xxtofl@arg                    cstackCOMRAM 00000B
___xxtofl@exp                    cstackCOMRAM 00000A
___xxtofl@sign                   cstackCOMRAM 000009
___xxtofl@val                    cstackCOMRAM 000001
__accesstop                      (abs)        000060
__activetblptr                   (abs)        000002
__end_of_ADC_GetConversion       text16       00300E
__end_of_ADC_Initialize          text13       002F2A
__end_of_OSCILLATOR_Initialize   text12       002ED0
__end_of_PIN_MANAGER_Initialize  text11       002F70
__end_of_PWM4_Initialize         text10       002F00
__end_of_PWM4_LoadDutyValue      text15       002FA2
__end_of_PWM5_Initialize         text9        002F14
__end_of_PWM5_LoadDutyValue      text14       002FD4
__end_of_SYSTEM_Initialize       text7        002F44
__end_of_TMR2_Initialize         text8        002EDE
__end_of___fladd                 text4        004000
__end_of___flge                  text6        003158
__end_of___flmul                 text5        003B40
__end_of___flsub                 text3        003054
__end_of___fltol                 text2        00325E
__end_of___xxtofl                text1        003412
__end_of__initialization         cinit        002EE2
__end_of_main                    text0        003716
__initialization                 cinit        002EDE
__mediumconst                    mediumconst  000000
__pbssCOMRAM                     bssCOMRAM    000059
__pcinit                         cinit        002EDE
__pcstackCOMRAM                  cstackCOMRAM 000001
__ptext0                         text0        003412
__ptext1                         text1        00325E
__ptext10                        text10       002EEC
__ptext11                        text11       002F44
__ptext12                        text12       002EC2
__ptext13                        text13       002F14
__ptext14                        text14       002FA2
__ptext15                        text15       002F70
__ptext16                        text16       002FD4
__ptext2                         text2        003158
__ptext3                         text3        00300E
__ptext4                         text4        003B40
__ptext5                         text5        003716
__ptext6                         text6        003054
__ptext7                         text7        002F2A
__ptext8                         text8        002ED0
__ptext9                         text9        002F00
__ramtop                         ramtop       000300
__size_of_ADC_GetConversion      (abs)        000000
__size_of_ADC_Initialize         (abs)        000000
__size_of_OSCILLATOR_Initialize  (abs)        000000
__size_of_PIN_MANAGER_Initialize (abs)        000000
__size_of_PWM4_Initialize        (abs)        000000
__size_of_PWM4_LoadDutyValue     (abs)        000000
__size_of_PWM5_Initialize        (abs)        000000
__size_of_PWM5_LoadDutyValue     (abs)        000000
__size_of_SYSTEM_Initialize      (abs)        000000
__size_of_TMR2_Initialize        (abs)        000000
__size_of___fladd                (abs)        000000
__size_of___flge                 (abs)        000000
__size_of___flmul                (abs)        000000
__size_of___flsub                (abs)        000000
__size_of___fltol                (abs)        000000
__size_of___xxtofl               (abs)        000000
__size_of_main                   (abs)        000000
__smallconst                     smallconst   000000
_main                            text0        003412
end_of_initialization            cinit        002EE2
intlevel0                        text         000000
intlevel1                        text         000000
intlevel2                        text         000000
intlevel3                        text         000000
isa$std                          (abs)        000001
isa$xinst                        (abs)        000000
main@bat_lvl                     cstackCOMRAM 000057
main@i                           cstackCOMRAM 000053
main@i_410                       cstackCOMRAM 000055
main@k                           cstackCOMRAM 00004F
main@led_g                       cstackCOMRAM 00004B
main@led_r                       cstackCOMRAM 00004D
stackhi                          (abs)        0002FF
stacklo                          (abs)        000060
start                            init         000000
start_initialization             cinit        002EDE


MODULE INFORMATION

Module		Function		Class		Link	Load	Size
C:\Program Files\Microchip\xc8\v2.32\pic\sources\c99\common\sprcadd.c
		___flsub       		CODE           	300E	0000	70
		___fladd       		CODE           	3B40	0000	1216

C:\Program Files\Microchip\xc8\v2.32\pic\sources\c99\common\sprcadd.c estimated size: 1286

mcc_generated_files/pwm4.c
		_PWM4_Initialize		CODE           	2EEC	0000	20
		_PWM4_LoadDutyValue		CODE           	2F70	0000	50

mcc_generated_files/pwm4.c estimated size: 70

mcc_generated_files/tmr2.c
		_TMR2_Initialize		CODE           	2ED0	0000	14

mcc_generated_files/tmr2.c estimated size: 14

mcc_generated_files/pin_manager.c
		_PIN_MANAGER_Initialize		CODE           	2F44	0000	44

mcc_generated_files/pin_manager.c estimated size: 44

mcc_generated_files/adc.c
		_ADC_Initialize		CODE           	2F14	0000	22
		_ADC_GetConversion		CODE           	2FD4	0000	58

mcc_generated_files/adc.c estimated size: 80

shared
		__initialization		CODE           	2EDE	0000	4

shared estimated size: 4

C:\Program Files\Microchip\xc8\v2.32\pic\sources\c99\common\sprcmul.c
		___flmul       		CODE           	3716	0000	1066

C:\Program Files\Microchip\xc8\v2.32\pic\sources\c99\common\sprcmul.c estimated size: 1066

mcc_generated_files/pwm5.c
		_PWM5_LoadDutyValue		CODE           	2FA2	0000	50
		_PWM5_Initialize		CODE           	2F00	0000	20

mcc_generated_files/pwm5.c estimated size: 70

mcc_generated_files/mcc.c
		_OSCILLATOR_Initialize		CODE           	2EC2	0000	14
		_SYSTEM_Initialize		CODE           	2F2A	0000	26

mcc_generated_files/mcc.c estimated size: 40

C:\Program Files\Microchip\xc8\v2.32\pic\sources\c99\common\fltol.c
		___fltol       		CODE           	3158	0000	262

C:\Program Files\Microchip\xc8\v2.32\pic\sources\c99\common\fltol.c estimated size: 262

C:\Program Files\Microchip\xc8\v2.32\pic\sources\c99\common\xxtofl.c
		___xxtofl      		CODE           	325E	0000	436

C:\Program Files\Microchip\xc8\v2.32\pic\sources\c99\common\xxtofl.c estimated size: 436

main.c
		_main          		CODE           	3412	0000	772

main.c estimated size: 772

C:\Program Files\Microchip\xc8\v2.32\pic\sources\c99\common\flge.c
		___flge        		CODE           	3054	0000	260

C:\Program Files\Microchip\xc8\v2.32\pic\sources\c99\common\flge.c estimated size: 260

