

Microchip MPLAB XC8 Assembler V2.32 build 20210201212658 
                                                                                               Sun Apr 11 21:05:28 2021

Microchip MPLAB XC8 C Compiler v2.32 (Free license) build 20210201212658 Og1 
     1                           	processor	18F24K22
     2                           	fnconf	rparam,??,?,0
     3                           	pagewidth 120
     4                           	opt	flic
     5                           	psect	cinit,global,reloc=2,class=CODE,delta=1
     6                           	psect	bssCOMRAM,global,class=COMRAM,space=1,delta=1,lowdata,noexec
     7                           	psect	cstackCOMRAM,global,class=COMRAM,space=1,delta=1,lowdata,noexec
     8                           	psect	text0,global,reloc=2,class=CODE,delta=1
     9                           	psect	text1,global,reloc=2,class=CODE,delta=1,group=1
    10                           	psect	text2,global,reloc=2,class=CODE,delta=1,group=1
    11                           	psect	text3,global,reloc=2,class=CODE,delta=1,group=1
    12                           	psect	text4,global,reloc=2,class=CODE,delta=1,group=1
    13                           	psect	text5,global,reloc=2,class=CODE,delta=1,group=1
    14                           	psect	text6,global,reloc=2,class=CODE,delta=1,group=1
    15                           	psect	text7,global,reloc=2,class=CODE,delta=1
    16                           	psect	text8,global,reloc=2,class=CODE,delta=1
    17                           	psect	text9,global,reloc=2,class=CODE,delta=1
    18                           	psect	text10,global,reloc=2,class=CODE,delta=1
    19                           	psect	text11,global,reloc=2,class=CODE,delta=1
    20                           	psect	text12,global,reloc=2,class=CODE,delta=1
    21                           	psect	text13,global,reloc=2,class=CODE,delta=1
    22                           	psect	text14,global,reloc=2,class=CODE,delta=1
    23                           	psect	text15,global,reloc=2,class=CODE,delta=1
    24                           	psect	text16,global,reloc=2,class=CODE,delta=1
    25                           	psect	intsave_regs,global,class=BIGRAM,space=1,delta=1,noexec
    26                           	psect	rparam,global,class=COMRAM,space=1,delta=1,noexec
    27                           	psect	idloc,global,abs,ovrld,class=IDLOC,space=5,delta=1,noexec
    28                           	psect	config,global,abs,ovrld,class=CONFIG,space=4,delta=1,noexec
    29  0000                     
    30                           ; Version 2.20
    31                           ; Generated 05/05/2020 GMT
    32                           ; 
    33                           ; Copyright © 2020, Microchip Technology Inc. and its subsidiaries ("Microchip")
    34                           ; All rights reserved.
    35                           ; 
    36                           ; This software is developed by Microchip Technology Inc. and its subsidiaries ("Microch
      +                          ip").
    37                           ; 
    38                           ; Redistribution and use in source and binary forms, with or without modification, are
    39                           ; permitted provided that the following conditions are met:
    40                           ; 
    41                           ;     1. Redistributions of source code must retain the above copyright notice, this lis
      +                          t of
    42                           ;        conditions and the following disclaimer.
    43                           ; 
    44                           ;     2. Redistributions in binary form must reproduce the above copyright notice, this 
      +                          list
    45                           ;        of conditions and the following disclaimer in the documentation and/or other
    46                           ;        materials provided with the distribution.
    47                           ; 
    48                           ;     3. Microchip's name may not be used to endorse or promote products derived from th
      +                          is
    49                           ;        software without specific prior written permission.
    50                           ; 
    51                           ; THIS SOFTWARE IS PROVIDED BY MICROCHIP "AS IS" AND ANY EXPRESS OR IMPLIED WARRANTIES,
    52                           ; INCLUDING, BUT NOT LIMITED TO, THE IMPLIED WARRANTIES OF MERCHANTABILITY AND FITNESS F
      +                          OR
    53                           ; PURPOSE ARE DISCLAIMED.  IN NO EVENT SHALL MICROCHIP BE LIABLE FOR ANY DIRECT, INDIREC
      +                          T,
    54                           ; INCIDENTAL, SPECIAL, EXEMPLARY, OR CONSEQUENTIAL DAMAGES (INCLUDING BUT NOT LIMITED TO
    55                           ; PROCUREMENT OF SUBSTITUTE GOODS OR SERVICES; LOSS OF USE, DATA OR PROFITS; OR BUSINESS
    56                           ; INTERRUPTION) HOWSOEVER CAUSED AND ON ANY THEORY OF LIABILITY, WHETHER IN CONTRACT, ST
      +                          RICT
    57                           ; LIABILITY, OR TORT (INCLUDING NEGLIGENCE OR OTHERWISE) ARISING IN ANY WAY OUT OF THE U
      +                          SE OF
    58                           ; THIS SOFTWARE, EVEN IF ADVISED OF THE POSSIBILITY OF SUCH DAMAGE.
    59                           ; 
    60                           ; 
    61                           ; Code-generator required, PIC18F24K22 Definitions
    62                           ; 
    63                           ; SFR Addresses
    64  0000                     _CCPR4H	set	3929
    65  0000                     _CCPR4L	set	3928
    66  0000                     _CCP4CON	set	3927
    67  0000                     _CCPTMRS1bits	set	3912
    68  0000                     _CCPR5H	set	3926
    69  0000                     _CCPR5L	set	3925
    70  0000                     _CCP5CON	set	3924
    71  0000                     _ANSELA	set	3896
    72  0000                     _ANSELB	set	3897
    73  0000                     _ANSELC	set	3898
    74  0000                     _OSCTUNE	set	3995
    75  0000                     _OSCCON2	set	4050
    76  0000                     _OSCCON	set	4051
    77  0000                     _ADCON0bits	set	4034
    78  0000                     _ADCON0	set	4034
    79  0000                     _ADRESH	set	4036
    80  0000                     _ADRESL	set	4035
    81  0000                     _ADCON2	set	4032
    82  0000                     _ADCON1	set	4033
    83  0000                     _T2CONbits	set	4026
    84  0000                     _T2CON	set	4026
    85  0000                     _PIR1bits	set	3998
    86  0000                     _TMR2	set	4028
    87  0000                     _PR2	set	4027
    88  0000                     _INTCONbits	set	4082
    89  0000                     _INTCON2bits	set	4081
    90  0000                     _WPUB	set	3937
    91  0000                     _TRISC	set	3988
    92  0000                     _TRISB	set	3987
    93  0000                     _TRISA	set	3986
    94  0000                     _LATC	set	3979
    95  0000                     _LATB	set	3978
    96  0000                     _LATA	set	3977
    97                           
    98                           ; #config settings
    99                           
   100                           	psect	cinit
   101  002E34                     __pcinit:
   102                           	callstack 0
   103  002E34                     start_initialization:
   104                           	callstack 0
   105  002E34                     __initialization:
   106                           	callstack 0
   107                           
   108                           ; Clear objects allocated to COMRAM (2 bytes)
   109  002E34  6A5F               	clrf	(__pbssCOMRAM+1)& (0+255),c
   110  002E36  6A5E               	clrf	__pbssCOMRAM& (0+255),c
   111  002E38                     end_of_initialization:
   112                           	callstack 0
   113  002E38                     __end_of__initialization:
   114                           	callstack 0
   115  002E38  0E00               	movlw	low (__Lmediumconst shr (0+16))
   116  002E3A  6EF8               	movwf	tblptru,c
   117  002E3C  0100               	movlb	0
   118  002E3E  EFB4  F019         	goto	_main	;jump to C main() function
   119                           
   120                           	psect	bssCOMRAM
   121  00005E                     __pbssCOMRAM:
   122                           	callstack 0
   123  00005E                     _ADC_InterruptHandler:
   124                           	callstack 0
   125  00005E                     	ds	2
   126                           
   127                           	psect	cstackCOMRAM
   128  000001                     __pcstackCOMRAM:
   129                           	callstack 0
   130  000001                     ?_ADC_GetConversion:
   131                           	callstack 0
   132  000001                     PWM5_LoadDutyValue@dutyValue:
   133                           	callstack 0
   134  000001                     PWM4_LoadDutyValue@dutyValue:
   135                           	callstack 0
   136                           
   137                           ; 2 bytes @ 0x0
   138  000001                     	ds	2
   139  000003                     ??_PWM5_LoadDutyValue:
   140  000003                     ??_PWM4_LoadDutyValue:
   141  000003                     ??_ADC_GetConversion:
   142                           
   143                           ; 1 bytes @ 0x2
   144  000003                     	ds	2
   145  000005                     ADC_GetConversion@channel:
   146                           	callstack 0
   147                           
   148                           ; 1 bytes @ 0x4
   149  000005                     	ds	1
   150  000006                     ?___xxtofl:
   151                           	callstack 0
   152  000006                     ___xxtofl@val:
   153                           	callstack 0
   154                           
   155                           ; 4 bytes @ 0x5
   156  000006                     	ds	4
   157  00000A                     ??___xxtofl:
   158                           
   159                           ; 1 bytes @ 0x9
   160  00000A                     	ds	4
   161  00000E                     ___xxtofl@sign:
   162                           	callstack 0
   163                           
   164                           ; 1 bytes @ 0xD
   165  00000E                     	ds	1
   166  00000F                     ___xxtofl@exp:
   167                           	callstack 0
   168                           
   169                           ; 1 bytes @ 0xE
   170  00000F                     	ds	1
   171  000010                     ___xxtofl@arg:
   172                           	callstack 0
   173                           
   174                           ; 4 bytes @ 0xF
   175  000010                     	ds	4
   176  000014                     ?___flmul:
   177                           	callstack 0
   178  000014                     ___flge@ff1:
   179                           	callstack 0
   180  000014                     ___flmul@b:
   181                           	callstack 0
   182                           
   183                           ; 4 bytes @ 0x13
   184  000014                     	ds	4
   185  000018                     ___flge@ff2:
   186                           	callstack 0
   187  000018                     ___flmul@a:
   188                           	callstack 0
   189                           
   190                           ; 4 bytes @ 0x17
   191  000018                     	ds	4
   192  00001C                     ??___flmul:
   193  00001C                     ??___flge:
   194                           
   195                           ; 1 bytes @ 0x1B
   196  00001C                     	ds	4
   197  000020                     ___flmul@sign:
   198                           	callstack 0
   199                           
   200                           ; 1 bytes @ 0x1F
   201  000020                     	ds	1
   202  000021                     ___flmul@grs:
   203                           	callstack 0
   204                           
   205                           ; 4 bytes @ 0x20
   206  000021                     	ds	4
   207  000025                     ___flmul@aexp:
   208                           	callstack 0
   209                           
   210                           ; 1 bytes @ 0x24
   211  000025                     	ds	1
   212  000026                     ___flmul@bexp:
   213                           	callstack 0
   214                           
   215                           ; 1 bytes @ 0x25
   216  000026                     	ds	1
   217  000027                     ___flmul@prod:
   218                           	callstack 0
   219                           
   220                           ; 4 bytes @ 0x26
   221  000027                     	ds	4
   222  00002B                     ___flmul@temp:
   223                           	callstack 0
   224                           
   225                           ; 2 bytes @ 0x2A
   226  00002B                     	ds	2
   227  00002D                     ?___fladd:
   228                           	callstack 0
   229  00002D                     ___fladd@b:
   230                           	callstack 0
   231                           
   232                           ; 4 bytes @ 0x2C
   233  00002D                     	ds	4
   234  000031                     ___fladd@a:
   235                           	callstack 0
   236                           
   237                           ; 4 bytes @ 0x30
   238  000031                     	ds	4
   239  000035                     ??___fladd:
   240                           
   241                           ; 1 bytes @ 0x34
   242  000035                     	ds	4
   243  000039                     ___fladd@signs:
   244                           	callstack 0
   245                           
   246                           ; 1 bytes @ 0x38
   247  000039                     	ds	1
   248  00003A                     ___fladd@aexp:
   249                           	callstack 0
   250                           
   251                           ; 1 bytes @ 0x39
   252  00003A                     	ds	1
   253  00003B                     ___fladd@bexp:
   254                           	callstack 0
   255                           
   256                           ; 1 bytes @ 0x3A
   257  00003B                     	ds	1
   258  00003C                     ___fladd@grs:
   259                           	callstack 0
   260                           
   261                           ; 1 bytes @ 0x3B
   262  00003C                     	ds	1
   263  00003D                     ?___flsub:
   264                           	callstack 0
   265  00003D                     ___flsub@b:
   266                           	callstack 0
   267                           
   268                           ; 4 bytes @ 0x3C
   269  00003D                     	ds	4
   270  000041                     ___flsub@a:
   271                           	callstack 0
   272                           
   273                           ; 4 bytes @ 0x40
   274  000041                     	ds	4
   275  000045                     ?___fltol:
   276                           	callstack 0
   277  000045                     ___fltol@f1:
   278                           	callstack 0
   279                           
   280                           ; 4 bytes @ 0x44
   281  000045                     	ds	4
   282  000049                     ??___fltol:
   283                           
   284                           ; 1 bytes @ 0x48
   285  000049                     	ds	4
   286  00004D                     ___fltol@sign1:
   287                           	callstack 0
   288                           
   289                           ; 1 bytes @ 0x4C
   290  00004D                     	ds	1
   291  00004E                     ___fltol@exp1:
   292                           	callstack 0
   293                           
   294                           ; 1 bytes @ 0x4D
   295  00004E                     	ds	1
   296  00004F                     ??_main:
   297                           
   298                           ; 1 bytes @ 0x4E
   299  00004F                     	ds	1
   300  000050                     main@led_g:
   301                           	callstack 0
   302                           
   303                           ; 2 bytes @ 0x4F
   304  000050                     	ds	2
   305  000052                     main@led_r:
   306                           	callstack 0
   307                           
   308                           ; 2 bytes @ 0x51
   309  000052                     	ds	2
   310  000054                     main@k:
   311                           	callstack 0
   312                           
   313                           ; 4 bytes @ 0x53
   314  000054                     	ds	4
   315  000058                     main@i:
   316                           	callstack 0
   317                           
   318                           ; 2 bytes @ 0x57
   319  000058                     	ds	2
   320  00005A                     main@i_410:
   321                           	callstack 0
   322                           
   323                           ; 2 bytes @ 0x59
   324  00005A                     	ds	2
   325  00005C                     main@bat_lvl:
   326                           	callstack 0
   327                           
   328                           ; 2 bytes @ 0x5B
   329  00005C                     	ds	2
   330                           
   331 ;;
   332 ;;Main: autosize = 0, tempsize = 1, incstack = 0, save=0
   333 ;;
   334 ;; *************** function _main *****************
   335 ;; Defined at:
   336 ;;		line 52 in file "main.c"
   337 ;; Parameters:    Size  Location     Type
   338 ;;		None
   339 ;; Auto vars:     Size  Location     Type
   340 ;;  i               2   89[COMRAM] unsigned short 
   341 ;;  i               2   87[COMRAM] unsigned short 
   342 ;;  k               4   83[COMRAM] float 
   343 ;;  bat_lvl         2   91[COMRAM] unsigned short 
   344 ;;  led_r           2   81[COMRAM] unsigned short 
   345 ;;  led_g           2   79[COMRAM] unsigned short 
   346 ;; Return value:  Size  Location     Type
   347 ;;                  1    wreg      void 
   348 ;; Registers used:
   349 ;;		wreg, status,2, status,0, prodl, prodh, cstack
   350 ;; Tracked objects:
   351 ;;		On entry : 0/0
   352 ;;		On exit  : 0/0
   353 ;;		Unchanged: 0/0
   354 ;; Data sizes:     COMRAM   BANK0   BANK1   BANK2
   355 ;;      Params:         0       0       0       0
   356 ;;      Locals:        14       0       0       0
   357 ;;      Temps:          1       0       0       0
   358 ;;      Totals:        15       0       0       0
   359 ;;Total ram usage:       15 bytes
   360 ;; Hardware stack levels required when called: 2
   361 ;; This function calls:
   362 ;;		_ADC_GetConversion
   363 ;;		_PWM4_LoadDutyValue
   364 ;;		_PWM5_LoadDutyValue
   365 ;;		_SYSTEM_Initialize
   366 ;;		___fladd
   367 ;;		___flge
   368 ;;		___flmul
   369 ;;		___flsub
   370 ;;		___fltol
   371 ;;		___xxtofl
   372 ;; This function is called by:
   373 ;;		Startup code after reset
   374 ;; This function uses a non-reentrant model
   375 ;;
   376                           
   377                           	psect	text0
   378  003368                     __ptext0:
   379                           	callstack 0
   380  003368                     _main:
   381                           	callstack 29
   382  003368                     
   383                           ;main.c: 55:     SYSTEM_Initialize();
   384  003368  EC40  F017         	call	_SYSTEM_Initialize	;wreg free
   385  00336C                     
   386                           ;main.c: 73:     uint16_t bat_lvl = 1023.0;
   387  00336C  0E03               	movlw	3
   388  00336E  6E5D               	movwf	(main@bat_lvl+1)^0,c
   389  003370  685C               	setf	main@bat_lvl^0,c
   390  003372                     
   391                           ;main.c: 74:     uint16_t led_g, led_r;;main.c: 75:     float k;;main.c: 77:     k = 1.0
      +                          /(1.0-(795.0/1023.0));
   392  003372  0E36               	movlw	54
   393  003374  6E54               	movwf	main@k^0,c
   394  003376  0E94               	movlw	148
   395  003378  6E55               	movwf	(main@k+1)^0,c
   396  00337A  0E8F               	movlw	143
   397  00337C  6E56               	movwf	(main@k+2)^0,c
   398  00337E  0E40               	movlw	64
   399  003380  6E57               	movwf	(main@k+3)^0,c
   400  003382                     l1884:
   401                           
   402                           ;main.c: 80:     {;main.c: 82:         bat_lvl = (bat_lvl*.9) + (.1*(ADC_GetConversion(c
      +                          hannel_AN0)/64));
   403  003382  0ECD               	movlw	205
   404  003384  6E18               	movwf	___flmul@a^0,c
   405  003386  0ECC               	movlw	204
   406  003388  6E19               	movwf	(___flmul@a+1)^0,c
   407  00338A  0ECC               	movlw	204
   408  00338C  6E1A               	movwf	(___flmul@a+2)^0,c
   409  00338E  0E3D               	movlw	61
   410  003390  6E1B               	movwf	(___flmul@a+3)^0,c
   411  003392  0E00               	movlw	0
   412  003394  EC95  F017         	call	_ADC_GetConversion
   413  003398  0E06               	movlw	6
   414  00339A  6E4F               	movwf	??_main^0,c
   415  00339C                     u1715:
   416  00339C  90D8               	bcf	status,0,c
   417  00339E  3202               	rrcf	(?_ADC_GetConversion+1)^0,f,c
   418  0033A0  3201               	rrcf	?_ADC_GetConversion^0,f,c
   419  0033A2  2E4F               	decfsz	??_main^0,f,c
   420  0033A4  EFCE  F019         	goto	u1715
   421  0033A8  C001  F006         	movff	?_ADC_GetConversion,___xxtofl@val
   422  0033AC  C002  F007         	movff	?_ADC_GetConversion+1,___xxtofl@val+1
   423  0033B0  6A08               	clrf	(___xxtofl@val+2)^0,c
   424  0033B2  6A09               	clrf	(___xxtofl@val+3)^0,c
   425  0033B4  0E00               	movlw	0
   426  0033B6  ECDA  F018         	call	___xxtofl
   427  0033BA  C006  F014         	movff	?___xxtofl,___flmul@b
   428  0033BE  C007  F015         	movff	?___xxtofl+1,___flmul@b+1
   429  0033C2  C008  F016         	movff	?___xxtofl+2,___flmul@b+2
   430  0033C6  C009  F017         	movff	?___xxtofl+3,___flmul@b+3
   431  0033CA  EC8B  F01B         	call	___flmul	;wreg free
   432  0033CE  C014  F031         	movff	?___flmul,___fladd@a
   433  0033D2  C015  F032         	movff	?___flmul+1,___fladd@a+1
   434  0033D6  C016  F033         	movff	?___flmul+2,___fladd@a+2
   435  0033DA  C017  F034         	movff	?___flmul+3,___fladd@a+3
   436  0033DE  0E66               	movlw	102
   437  0033E0  6E18               	movwf	___flmul@a^0,c
   438  0033E2  0E66               	movlw	102
   439  0033E4  6E19               	movwf	(___flmul@a+1)^0,c
   440  0033E6  0E66               	movlw	102
   441  0033E8  6E1A               	movwf	(___flmul@a+2)^0,c
   442  0033EA  0E3F               	movlw	63
   443  0033EC  6E1B               	movwf	(___flmul@a+3)^0,c
   444  0033EE  C05C  F006         	movff	main@bat_lvl,___xxtofl@val
   445  0033F2  C05D  F007         	movff	main@bat_lvl+1,___xxtofl@val+1
   446  0033F6  6A08               	clrf	(___xxtofl@val+2)^0,c
   447  0033F8  6A09               	clrf	(___xxtofl@val+3)^0,c
   448  0033FA  0E00               	movlw	0
   449  0033FC  ECDA  F018         	call	___xxtofl
   450  003400  C006  F014         	movff	?___xxtofl,___flmul@b
   451  003404  C007  F015         	movff	?___xxtofl+1,___flmul@b+1
   452  003408  C008  F016         	movff	?___xxtofl+2,___flmul@b+2
   453  00340C  C009  F017         	movff	?___xxtofl+3,___flmul@b+3
   454  003410  EC8B  F01B         	call	___flmul	;wreg free
   455  003414  C014  F02D         	movff	?___flmul,___fladd@b
   456  003418  C015  F02E         	movff	?___flmul+1,___fladd@b+1
   457  00341C  C016  F02F         	movff	?___flmul+2,___fladd@b+2
   458  003420  C017  F030         	movff	?___flmul+3,___fladd@b+3
   459  003424  ECA0  F01D         	call	___fladd	;wreg free
   460  003428  C02D  F045         	movff	?___fladd,___fltol@f1
   461  00342C  C02E  F046         	movff	?___fladd+1,___fltol@f1+1
   462  003430  C02F  F047         	movff	?___fladd+2,___fltol@f1+2
   463  003434  C030  F048         	movff	?___fladd+3,___fltol@f1+3
   464  003438  EC57  F018         	call	___fltol	;wreg free
   465  00343C  C045  F05C         	movff	?___fltol,main@bat_lvl
   466  003440  C046  F05D         	movff	?___fltol+1,main@bat_lvl+1
   467  003444                     
   468                           ;main.c: 84:         if(bat_lvl > 795.0){
   469  003444  0E00               	movlw	0
   470  003446  6E14               	movwf	___flge@ff1^0,c
   471  003448  0EC0               	movlw	192
   472  00344A  6E15               	movwf	(___flge@ff1+1)^0,c
   473  00344C  0E46               	movlw	70
   474  00344E  6E16               	movwf	(___flge@ff1+2)^0,c
   475  003450  0E44               	movlw	68
   476  003452  6E17               	movwf	(___flge@ff1+3)^0,c
   477  003454  C05C  F006         	movff	main@bat_lvl,___xxtofl@val
   478  003458  C05D  F007         	movff	main@bat_lvl+1,___xxtofl@val+1
   479  00345C  6A08               	clrf	(___xxtofl@val+2)^0,c
   480  00345E  6A09               	clrf	(___xxtofl@val+3)^0,c
   481  003460  0E00               	movlw	0
   482  003462  ECDA  F018         	call	___xxtofl
   483  003466  C006  F018         	movff	?___xxtofl,___flge@ff2
   484  00346A  C007  F019         	movff	?___xxtofl+1,___flge@ff2+1
   485  00346E  C008  F01A         	movff	?___xxtofl+2,___flge@ff2+2
   486  003472  C009  F01B         	movff	?___xxtofl+3,___flge@ff2+3
   487  003476  ECD5  F017         	call	___flge	;wreg free
   488  00347A  B0D8               	btfsc	status,0,c
   489  00347C  EF42  F01A         	goto	u1721
   490  003480  EF44  F01A         	goto	u1720
   491  003484                     u1721:
   492  003484  EFC8  F01A         	goto	l1894
   493  003488                     u1720:
   494  003488                     
   495                           ;main.c: 85:             led_g = (uint16_t) (k*(bat_lvl - 795.0));
   496  003488  C054  F018         	movff	main@k,___flmul@a
   497  00348C  C055  F019         	movff	main@k+1,___flmul@a+1
   498  003490  C056  F01A         	movff	main@k+2,___flmul@a+2
   499  003494  C057  F01B         	movff	main@k+3,___flmul@a+3
   500  003498  0E00               	movlw	0
   501  00349A  6E31               	movwf	___fladd@a^0,c
   502  00349C  0EC0               	movlw	192
   503  00349E  6E32               	movwf	(___fladd@a+1)^0,c
   504  0034A0  0E46               	movlw	70
   505  0034A2  6E33               	movwf	(___fladd@a+2)^0,c
   506  0034A4  0EC4               	movlw	196
   507  0034A6  6E34               	movwf	(___fladd@a+3)^0,c
   508  0034A8  C05C  F006         	movff	main@bat_lvl,___xxtofl@val
   509  0034AC  C05D  F007         	movff	main@bat_lvl+1,___xxtofl@val+1
   510  0034B0  6A08               	clrf	(___xxtofl@val+2)^0,c
   511  0034B2  6A09               	clrf	(___xxtofl@val+3)^0,c
   512  0034B4  0E00               	movlw	0
   513  0034B6  ECDA  F018         	call	___xxtofl
   514  0034BA  C006  F02D         	movff	?___xxtofl,___fladd@b
   515  0034BE  C007  F02E         	movff	?___xxtofl+1,___fladd@b+1
   516  0034C2  C008  F02F         	movff	?___xxtofl+2,___fladd@b+2
   517  0034C6  C009  F030         	movff	?___xxtofl+3,___fladd@b+3
   518  0034CA  ECA0  F01D         	call	___fladd	;wreg free
   519  0034CE  C02D  F014         	movff	?___fladd,___flmul@b
   520  0034D2  C02E  F015         	movff	?___fladd+1,___flmul@b+1
   521  0034D6  C02F  F016         	movff	?___fladd+2,___flmul@b+2
   522  0034DA  C030  F017         	movff	?___fladd+3,___flmul@b+3
   523  0034DE  EC8B  F01B         	call	___flmul	;wreg free
   524  0034E2  C014  F045         	movff	?___flmul,___fltol@f1
   525  0034E6  C015  F046         	movff	?___flmul+1,___fltol@f1+1
   526  0034EA  C016  F047         	movff	?___flmul+2,___fltol@f1+2
   527  0034EE  C017  F048         	movff	?___flmul+3,___fltol@f1+3
   528  0034F2  EC57  F018         	call	___fltol	;wreg free
   529  0034F6  C045  F050         	movff	?___fltol,main@led_g
   530  0034FA  C046  F051         	movff	?___fltol+1,main@led_g+1
   531                           
   532                           ;main.c: 86:             led_r = (uint16_t) (k*(1023.0 - bat_lvl));
   533  0034FE  C054  F018         	movff	main@k,___flmul@a
   534  003502  C055  F019         	movff	main@k+1,___flmul@a+1
   535  003506  C056  F01A         	movff	main@k+2,___flmul@a+2
   536  00350A  C057  F01B         	movff	main@k+3,___flmul@a+3
   537  00350E  C05C  F006         	movff	main@bat_lvl,___xxtofl@val
   538  003512  C05D  F007         	movff	main@bat_lvl+1,___xxtofl@val+1
   539  003516  6A08               	clrf	(___xxtofl@val+2)^0,c
   540  003518  6A09               	clrf	(___xxtofl@val+3)^0,c
   541  00351A  0E00               	movlw	0
   542  00351C  ECDA  F018         	call	___xxtofl
   543  003520  C006  F041         	movff	?___xxtofl,___flsub@a
   544  003524  C007  F042         	movff	?___xxtofl+1,___flsub@a+1
   545  003528  C008  F043         	movff	?___xxtofl+2,___flsub@a+2
   546  00352C  C009  F044         	movff	?___xxtofl+3,___flsub@a+3
   547  003530  0E00               	movlw	0
   548  003532  6E3D               	movwf	___flsub@b^0,c
   549  003534  0EC0               	movlw	192
   550  003536  6E3E               	movwf	(___flsub@b+1)^0,c
   551  003538  0E7F               	movlw	127
   552  00353A  6E3F               	movwf	(___flsub@b+2)^0,c
   553  00353C  0E44               	movlw	68
   554  00353E  6E40               	movwf	(___flsub@b+3)^0,c
   555  003540  ECB2  F017         	call	___flsub	;wreg free
   556  003544  C03D  F014         	movff	?___flsub,___flmul@b
   557  003548  C03E  F015         	movff	?___flsub+1,___flmul@b+1
   558  00354C  C03F  F016         	movff	?___flsub+2,___flmul@b+2
   559  003550  C040  F017         	movff	?___flsub+3,___flmul@b+3
   560  003554  EC8B  F01B         	call	___flmul	;wreg free
   561  003558  C014  F045         	movff	?___flmul,___fltol@f1
   562  00355C  C015  F046         	movff	?___flmul+1,___fltol@f1+1
   563  003560  C016  F047         	movff	?___flmul+2,___fltol@f1+2
   564  003564  C017  F048         	movff	?___flmul+3,___fltol@f1+3
   565  003568  EC57  F018         	call	___fltol	;wreg free
   566  00356C  C045  F052         	movff	?___fltol,main@led_r
   567  003570  C046  F053         	movff	?___fltol+1,main@led_r+1
   568  003574                     
   569                           ;main.c: 88:             PWM4_LoadDutyValue(led_g);
   570  003574  C050  F001         	movff	main@led_g,PWM4_LoadDutyValue@dutyValue
   571  003578  C051  F002         	movff	main@led_g+1,PWM4_LoadDutyValue@dutyValue+1
   572  00357C  EC63  F017         	call	_PWM4_LoadDutyValue	;wreg free
   573  003580                     
   574                           ;main.c: 89:             PWM5_LoadDutyValue(led_r);
   575  003580  C052  F001         	movff	main@led_r,PWM5_LoadDutyValue@dutyValue
   576  003584  C053  F002         	movff	main@led_r+1,PWM5_LoadDutyValue@dutyValue+1
   577  003588  EC7C  F017         	call	_PWM5_LoadDutyValue	;wreg free
   578                           
   579                           ;main.c: 90:         }else{
   580  00358C  EFC1  F019         	goto	l1884
   581  003590                     l1894:
   582                           
   583                           ;main.c: 91:             PWM4_LoadDutyValue(0);
   584  003590  0E00               	movlw	0
   585  003592  6E02               	movwf	(PWM4_LoadDutyValue@dutyValue+1)^0,c
   586  003594  0E00               	movlw	0
   587  003596  6E01               	movwf	PWM4_LoadDutyValue@dutyValue^0,c
   588  003598  EC63  F017         	call	_PWM4_LoadDutyValue	;wreg free
   589                           
   590                           ;main.c: 92:             PWM5_LoadDutyValue(0);
   591  00359C  0E00               	movlw	0
   592  00359E  6E02               	movwf	(PWM5_LoadDutyValue@dutyValue+1)^0,c
   593  0035A0  0E00               	movlw	0
   594  0035A2  6E01               	movwf	PWM5_LoadDutyValue@dutyValue^0,c
   595  0035A4  EC7C  F017         	call	_PWM5_LoadDutyValue	;wreg free
   596  0035A8                     
   597                           ;main.c: 93:             for(uint16_t i=bat_lvl;i<795.0;i++){
   598  0035A8  C05C  F058         	movff	main@bat_lvl,main@i
   599  0035AC  C05D  F059         	movff	main@bat_lvl+1,main@i+1
   600  0035B0  C058  F006         	movff	main@i,___xxtofl@val
   601  0035B4  C059  F007         	movff	main@i+1,___xxtofl@val+1
   602  0035B8  6A08               	clrf	(___xxtofl@val+2)^0,c
   603  0035BA  6A09               	clrf	(___xxtofl@val+3)^0,c
   604  0035BC  0E00               	movlw	0
   605  0035BE  ECDA  F018         	call	___xxtofl
   606  0035C2  C006  F014         	movff	?___xxtofl,___flge@ff1
   607  0035C6  C007  F015         	movff	?___xxtofl+1,___flge@ff1+1
   608  0035CA  C008  F016         	movff	?___xxtofl+2,___flge@ff1+2
   609  0035CE  C009  F017         	movff	?___xxtofl+3,___flge@ff1+3
   610  0035D2  0E00               	movlw	0
   611  0035D4  6E18               	movwf	___flge@ff2^0,c
   612  0035D6  0EC0               	movlw	192
   613  0035D8  6E19               	movwf	(___flge@ff2+1)^0,c
   614  0035DA  0E46               	movlw	70
   615  0035DC  6E1A               	movwf	(___flge@ff2+2)^0,c
   616  0035DE  0E44               	movlw	68
   617  0035E0  6E1B               	movwf	(___flge@ff2+3)^0,c
   618  0035E2  ECD5  F017         	call	___flge	;wreg free
   619  0035E6  A0D8               	btfss	status,0,c
   620  0035E8  EFF8  F01A         	goto	u1731
   621  0035EC  EFFA  F01A         	goto	u1730
   622  0035F0                     u1731:
   623  0035F0  EFFC  F01A         	goto	l1900
   624  0035F4                     u1730:
   625  0035F4  EF28  F01B         	goto	l1906
   626  0035F8                     l1900:
   627                           
   628                           ;main.c: 94:                 _delay((unsigned long)((1)*(16000000/4000.0)));
   629  0035F8  0E06               	movlw	6
   630  0035FA  6E4F               	movwf	??_main^0,c
   631  0035FC  0E30               	movlw	48
   632  0035FE                     u1777:
   633  0035FE  2EE8               	decfsz	wreg,f,c
   634  003600  D7FE               	bra	u1777
   635  003602  2E4F               	decfsz	??_main^0,f,c
   636  003604  D7FC               	bra	u1777
   637  003606  D000               	nop2	
   638  003608                     
   639                           ;main.c: 95:             }
   640  003608  4A58               	infsnz	main@i^0,f,c
   641  00360A  2A59               	incf	(main@i+1)^0,f,c
   642  00360C  C058  F006         	movff	main@i,___xxtofl@val
   643  003610  C059  F007         	movff	main@i+1,___xxtofl@val+1
   644  003614  6A08               	clrf	(___xxtofl@val+2)^0,c
   645  003616  6A09               	clrf	(___xxtofl@val+3)^0,c
   646  003618  0E00               	movlw	0
   647  00361A  ECDA  F018         	call	___xxtofl
   648  00361E  C006  F014         	movff	?___xxtofl,___flge@ff1
   649  003622  C007  F015         	movff	?___xxtofl+1,___flge@ff1+1
   650  003626  C008  F016         	movff	?___xxtofl+2,___flge@ff1+2
   651  00362A  C009  F017         	movff	?___xxtofl+3,___flge@ff1+3
   652  00362E  0E00               	movlw	0
   653  003630  6E18               	movwf	___flge@ff2^0,c
   654  003632  0EC0               	movlw	192
   655  003634  6E19               	movwf	(___flge@ff2+1)^0,c
   656  003636  0E46               	movlw	70
   657  003638  6E1A               	movwf	(___flge@ff2+2)^0,c
   658  00363A  0E44               	movlw	68
   659  00363C  6E1B               	movwf	(___flge@ff2+3)^0,c
   660  00363E  ECD5  F017         	call	___flge	;wreg free
   661  003642  A0D8               	btfss	status,0,c
   662  003644  EF26  F01B         	goto	u1741
   663  003648  EF28  F01B         	goto	u1740
   664  00364C                     u1741:
   665  00364C  EFFC  F01A         	goto	l1900
   666  003650                     u1740:
   667  003650                     l1906:
   668                           
   669                           ;main.c: 96:             PWM5_LoadDutyValue(1023);
   670  003650  0E03               	movlw	3
   671  003652  6E02               	movwf	(PWM5_LoadDutyValue@dutyValue+1)^0,c
   672  003654  6801               	setf	PWM5_LoadDutyValue@dutyValue^0,c
   673  003656  EC7C  F017         	call	_PWM5_LoadDutyValue	;wreg free
   674  00365A                     
   675                           ;main.c: 97:             for(uint16_t i=bat_lvl;i<795.0;i++){
   676  00365A  C05C  F05A         	movff	main@bat_lvl,main@i_410
   677  00365E  C05D  F05B         	movff	main@bat_lvl+1,main@i_410+1
   678  003662  C05A  F006         	movff	main@i_410,___xxtofl@val
   679  003666  C05B  F007         	movff	main@i_410+1,___xxtofl@val+1
   680  00366A  6A08               	clrf	(___xxtofl@val+2)^0,c
   681  00366C  6A09               	clrf	(___xxtofl@val+3)^0,c
   682  00366E  0E00               	movlw	0
   683  003670  ECDA  F018         	call	___xxtofl
   684  003674  C006  F014         	movff	?___xxtofl,___flge@ff1
   685  003678  C007  F015         	movff	?___xxtofl+1,___flge@ff1+1
   686  00367C  C008  F016         	movff	?___xxtofl+2,___flge@ff1+2
   687  003680  C009  F017         	movff	?___xxtofl+3,___flge@ff1+3
   688  003684  0E00               	movlw	0
   689  003686  6E18               	movwf	___flge@ff2^0,c
   690  003688  0EC0               	movlw	192
   691  00368A  6E19               	movwf	(___flge@ff2+1)^0,c
   692  00368C  0E46               	movlw	70
   693  00368E  6E1A               	movwf	(___flge@ff2+2)^0,c
   694  003690  0E44               	movlw	68
   695  003692  6E1B               	movwf	(___flge@ff2+3)^0,c
   696  003694  ECD5  F017         	call	___flge	;wreg free
   697  003698  A0D8               	btfss	status,0,c
   698  00369A  EF51  F01B         	goto	u1751
   699  00369E  EF53  F01B         	goto	u1750
   700  0036A2                     u1751:
   701  0036A2  EF55  F01B         	goto	l1912
   702  0036A6                     u1750:
   703  0036A6  EF81  F01B         	goto	l1918
   704  0036AA                     l1912:
   705                           
   706                           ;main.c: 98:                 _delay((unsigned long)((1)*(16000000/4000.0)));
   707  0036AA  0E06               	movlw	6
   708  0036AC  6E4F               	movwf	??_main^0,c
   709  0036AE  0E30               	movlw	48
   710  0036B0                     u1787:
   711  0036B0  2EE8               	decfsz	wreg,f,c
   712  0036B2  D7FE               	bra	u1787
   713  0036B4  2E4F               	decfsz	??_main^0,f,c
   714  0036B6  D7FC               	bra	u1787
   715  0036B8  D000               	nop2	
   716  0036BA                     
   717                           ;main.c: 99:             }
   718  0036BA  4A5A               	infsnz	main@i_410^0,f,c
   719  0036BC  2A5B               	incf	(main@i_410+1)^0,f,c
   720  0036BE  C05A  F006         	movff	main@i_410,___xxtofl@val
   721  0036C2  C05B  F007         	movff	main@i_410+1,___xxtofl@val+1
   722  0036C6  6A08               	clrf	(___xxtofl@val+2)^0,c
   723  0036C8  6A09               	clrf	(___xxtofl@val+3)^0,c
   724  0036CA  0E00               	movlw	0
   725  0036CC  ECDA  F018         	call	___xxtofl
   726  0036D0  C006  F014         	movff	?___xxtofl,___flge@ff1
   727  0036D4  C007  F015         	movff	?___xxtofl+1,___flge@ff1+1
   728  0036D8  C008  F016         	movff	?___xxtofl+2,___flge@ff1+2
   729  0036DC  C009  F017         	movff	?___xxtofl+3,___flge@ff1+3
   730  0036E0  0E00               	movlw	0
   731  0036E2  6E18               	movwf	___flge@ff2^0,c
   732  0036E4  0EC0               	movlw	192
   733  0036E6  6E19               	movwf	(___flge@ff2+1)^0,c
   734  0036E8  0E46               	movlw	70
   735  0036EA  6E1A               	movwf	(___flge@ff2+2)^0,c
   736  0036EC  0E44               	movlw	68
   737  0036EE  6E1B               	movwf	(___flge@ff2+3)^0,c
   738  0036F0  ECD5  F017         	call	___flge	;wreg free
   739  0036F4  A0D8               	btfss	status,0,c
   740  0036F6  EF7F  F01B         	goto	u1761
   741  0036FA  EF81  F01B         	goto	u1760
   742  0036FE                     u1761:
   743  0036FE  EF55  F01B         	goto	l1912
   744  003702                     u1760:
   745  003702                     l1918:
   746                           
   747                           ;main.c: 100:             PWM5_LoadDutyValue(0);
   748  003702  0E00               	movlw	0
   749  003704  6E02               	movwf	(PWM5_LoadDutyValue@dutyValue+1)^0,c
   750  003706  0E00               	movlw	0
   751  003708  6E01               	movwf	PWM5_LoadDutyValue@dutyValue^0,c
   752  00370A  EC7C  F017         	call	_PWM5_LoadDutyValue	;wreg free
   753  00370E  EFC1  F019         	goto	l1884
   754  003712  EF00  F000         	goto	start
   755  003716                     __end_of_main:
   756                           	callstack 0
   757                           
   758 ;; *************** function ___xxtofl *****************
   759 ;; Defined at:
   760 ;;		line 10 in file "C:\Program Files\Microchip\xc8\v2.32\pic\sources\c99\common\xxtofl.c"
   761 ;; Parameters:    Size  Location     Type
   762 ;;  sign            1    wreg     unsigned char 
   763 ;;  val             4    5[COMRAM] long 
   764 ;; Auto vars:     Size  Location     Type
   765 ;;  sign            1   13[COMRAM] unsigned char 
   766 ;;  arg             4   15[COMRAM] unsigned long 
   767 ;;  exp             1   14[COMRAM] unsigned char 
   768 ;; Return value:  Size  Location     Type
   769 ;;                  4    5[COMRAM] unsigned char 
   770 ;; Registers used:
   771 ;;		wreg, status,2, status,0
   772 ;; Tracked objects:
   773 ;;		On entry : 0/0
   774 ;;		On exit  : 0/0
   775 ;;		Unchanged: 0/0
   776 ;; Data sizes:     COMRAM   BANK0   BANK1   BANK2
   777 ;;      Params:         4       0       0       0
   778 ;;      Locals:         6       0       0       0
   779 ;;      Temps:          4       0       0       0
   780 ;;      Totals:        14       0       0       0
   781 ;;Total ram usage:       14 bytes
   782 ;; Hardware stack levels used: 1
   783 ;; This function calls:
   784 ;;		Nothing
   785 ;; This function is called by:
   786 ;;		_main
   787 ;; This function uses a non-reentrant model
   788 ;;
   789                           
   790                           	psect	text1
   791  0031B4                     __ptext1:
   792                           	callstack 0
   793  0031B4                     ___xxtofl:
   794                           	callstack 30
   795                           
   796                           ;incstack = 0
   797                           ;___xxtofl@sign stored from wreg
   798  0031B4  6E0E               	movwf	___xxtofl@sign^0,c
   799  0031B6  500E               	movf	___xxtofl@sign^0,w,c
   800  0031B8  B4D8               	btfsc	status,2,c
   801  0031BA  EFE1  F018         	goto	u1611
   802  0031BE  EFE3  F018         	goto	u1610
   803  0031C2                     u1611:
   804  0031C2  EF05  F019         	goto	l836
   805  0031C6                     u1610:
   806  0031C6  BE09               	btfsc	(___xxtofl@val+3)^0,7,c
   807  0031C8  EFEA  F018         	goto	u1620
   808  0031CC  EFE8  F018         	goto	u1621
   809  0031D0                     u1621:
   810  0031D0  EF05  F019         	goto	l836
   811  0031D4                     u1620:
   812  0031D4  C006  F00A         	movff	___xxtofl@val,??___xxtofl
   813  0031D8  C007  F00B         	movff	___xxtofl@val+1,??___xxtofl+1
   814  0031DC  C008  F00C         	movff	___xxtofl@val+2,??___xxtofl+2
   815  0031E0  C009  F00D         	movff	___xxtofl@val+3,??___xxtofl+3
   816  0031E4  1E0A               	comf	??___xxtofl^0,f,c
   817  0031E6  1E0B               	comf	(??___xxtofl+1)^0,f,c
   818  0031E8  1E0C               	comf	(??___xxtofl+2)^0,f,c
   819  0031EA  1E0D               	comf	(??___xxtofl+3)^0,f,c
   820  0031EC  2A0A               	incf	??___xxtofl^0,f,c
   821  0031EE  0E00               	movlw	0
   822  0031F0  220B               	addwfc	(??___xxtofl+1)^0,f,c
   823  0031F2  220C               	addwfc	(??___xxtofl+2)^0,f,c
   824  0031F4  220D               	addwfc	(??___xxtofl+3)^0,f,c
   825  0031F6  C00A  F010         	movff	??___xxtofl,___xxtofl@arg
   826  0031FA  C00B  F011         	movff	??___xxtofl+1,___xxtofl@arg+1
   827  0031FE  C00C  F012         	movff	??___xxtofl+2,___xxtofl@arg+2
   828  003202  C00D  F013         	movff	??___xxtofl+3,___xxtofl@arg+3
   829  003206  EF0D  F019         	goto	l1838
   830  00320A                     l836:
   831  00320A  C006  F010         	movff	___xxtofl@val,___xxtofl@arg
   832  00320E  C007  F011         	movff	___xxtofl@val+1,___xxtofl@arg+1
   833  003212  C008  F012         	movff	___xxtofl@val+2,___xxtofl@arg+2
   834  003216  C009  F013         	movff	___xxtofl@val+3,___xxtofl@arg+3
   835  00321A                     l1838:
   836  00321A  5006               	movf	___xxtofl@val^0,w,c
   837  00321C  1007               	iorwf	(___xxtofl@val+1)^0,w,c
   838  00321E  1008               	iorwf	(___xxtofl@val+2)^0,w,c
   839  003220  1009               	iorwf	(___xxtofl@val+3)^0,w,c
   840  003222  A4D8               	btfss	status,2,c
   841  003224  EF16  F019         	goto	u1631
   842  003228  EF18  F019         	goto	u1630
   843  00322C                     u1631:
   844  00322C  EF22  F019         	goto	l1844
   845  003230                     u1630:
   846  003230  0E00               	movlw	0
   847  003232  6E06               	movwf	?___xxtofl^0,c
   848  003234  0E00               	movlw	0
   849  003236  6E07               	movwf	(?___xxtofl+1)^0,c
   850  003238  0E00               	movlw	0
   851  00323A  6E08               	movwf	(?___xxtofl+2)^0,c
   852  00323C  0E00               	movlw	0
   853  00323E  6E09               	movwf	(?___xxtofl+3)^0,c
   854  003240  EFB3  F019         	goto	l839
   855  003244                     l1844:
   856  003244  0E96               	movlw	150
   857  003246  6E0F               	movwf	___xxtofl@exp^0,c
   858  003248  EF2C  F019         	goto	l1848
   859  00324C                     l1846:
   860  00324C  2A0F               	incf	___xxtofl@exp^0,f,c
   861  00324E  90D8               	bcf	status,0,c
   862  003250  3213               	rrcf	(___xxtofl@arg+3)^0,f,c
   863  003252  3212               	rrcf	(___xxtofl@arg+2)^0,f,c
   864  003254  3211               	rrcf	(___xxtofl@arg+1)^0,f,c
   865  003256  3210               	rrcf	___xxtofl@arg^0,f,c
   866  003258                     l1848:
   867  003258  0E00               	movlw	0
   868  00325A  1410               	andwf	___xxtofl@arg^0,w,c
   869  00325C  6E0A               	movwf	??___xxtofl^0,c
   870  00325E  0E00               	movlw	0
   871  003260  1411               	andwf	(___xxtofl@arg+1)^0,w,c
   872  003262  6E0B               	movwf	(??___xxtofl+1)^0,c
   873  003264  0E00               	movlw	0
   874  003266  1412               	andwf	(___xxtofl@arg+2)^0,w,c
   875  003268  6E0C               	movwf	(??___xxtofl+2)^0,c
   876  00326A  0EFE               	movlw	254
   877  00326C  1413               	andwf	(___xxtofl@arg+3)^0,w,c
   878  00326E  6E0D               	movwf	(??___xxtofl+3)^0,c
   879  003270  500A               	movf	??___xxtofl^0,w,c
   880  003272  100B               	iorwf	(??___xxtofl+1)^0,w,c
   881  003274  100C               	iorwf	(??___xxtofl+2)^0,w,c
   882  003276  100D               	iorwf	(??___xxtofl+3)^0,w,c
   883  003278  A4D8               	btfss	status,2,c
   884  00327A  EF41  F019         	goto	u1641
   885  00327E  EF43  F019         	goto	u1640
   886  003282                     u1641:
   887  003282  EF26  F019         	goto	l1846
   888  003286                     u1640:
   889  003286  EF51  F019         	goto	l843
   890  00328A                     l1850:
   891  00328A  2A0F               	incf	___xxtofl@exp^0,f,c
   892  00328C  0E01               	movlw	1
   893  00328E  2610               	addwf	___xxtofl@arg^0,f,c
   894  003290  0E00               	movlw	0
   895  003292  2211               	addwfc	(___xxtofl@arg+1)^0,f,c
   896  003294  2212               	addwfc	(___xxtofl@arg+2)^0,f,c
   897  003296  2213               	addwfc	(___xxtofl@arg+3)^0,f,c
   898  003298  90D8               	bcf	status,0,c
   899  00329A  3213               	rrcf	(___xxtofl@arg+3)^0,f,c
   900  00329C  3212               	rrcf	(___xxtofl@arg+2)^0,f,c
   901  00329E  3211               	rrcf	(___xxtofl@arg+1)^0,f,c
   902  0032A0  3210               	rrcf	___xxtofl@arg^0,f,c
   903  0032A2                     l843:
   904  0032A2  0E00               	movlw	0
   905  0032A4  1410               	andwf	___xxtofl@arg^0,w,c
   906  0032A6  6E0A               	movwf	??___xxtofl^0,c
   907  0032A8  0E00               	movlw	0
   908  0032AA  1411               	andwf	(___xxtofl@arg+1)^0,w,c
   909  0032AC  6E0B               	movwf	(??___xxtofl+1)^0,c
   910  0032AE  0E00               	movlw	0
   911  0032B0  1412               	andwf	(___xxtofl@arg+2)^0,w,c
   912  0032B2  6E0C               	movwf	(??___xxtofl+2)^0,c
   913  0032B4  0EFF               	movlw	255
   914  0032B6  1413               	andwf	(___xxtofl@arg+3)^0,w,c
   915  0032B8  6E0D               	movwf	(??___xxtofl+3)^0,c
   916  0032BA  500A               	movf	??___xxtofl^0,w,c
   917  0032BC  100B               	iorwf	(??___xxtofl+1)^0,w,c
   918  0032BE  100C               	iorwf	(??___xxtofl+2)^0,w,c
   919  0032C0  100D               	iorwf	(??___xxtofl+3)^0,w,c
   920  0032C2  A4D8               	btfss	status,2,c
   921  0032C4  EF66  F019         	goto	u1651
   922  0032C8  EF68  F019         	goto	u1650
   923  0032CC                     u1651:
   924  0032CC  EF45  F019         	goto	l1850
   925  0032D0                     u1650:
   926  0032D0  EF70  F019         	goto	l1858
   927  0032D4                     l1856:
   928  0032D4  060F               	decf	___xxtofl@exp^0,f,c
   929  0032D6  90D8               	bcf	status,0,c
   930  0032D8  3610               	rlcf	___xxtofl@arg^0,f,c
   931  0032DA  3611               	rlcf	(___xxtofl@arg+1)^0,f,c
   932  0032DC  3612               	rlcf	(___xxtofl@arg+2)^0,f,c
   933  0032DE  3613               	rlcf	(___xxtofl@arg+3)^0,f,c
   934  0032E0                     l1858:
   935  0032E0  BE12               	btfsc	(___xxtofl@arg+2)^0,7,c
   936  0032E2  EF75  F019         	goto	u1661
   937  0032E6  EF77  F019         	goto	u1660
   938  0032EA                     u1661:
   939  0032EA  EF7F  F019         	goto	l850
   940  0032EE                     u1660:
   941  0032EE  0E02               	movlw	2
   942  0032F0  600F               	cpfslt	___xxtofl@exp^0,c
   943  0032F2  EF7D  F019         	goto	u1671
   944  0032F6  EF7F  F019         	goto	u1670
   945  0032FA                     u1671:
   946  0032FA  EF6A  F019         	goto	l1856
   947  0032FE                     u1670:
   948  0032FE                     l850:
   949  0032FE  B00F               	btfsc	___xxtofl@exp^0,0,c
   950  003300  EF84  F019         	goto	u1681
   951  003304  EF86  F019         	goto	u1680
   952  003308                     u1681:
   953  003308  EF87  F019         	goto	l1864
   954  00330C                     u1680:
   955  00330C  9E12               	bcf	(___xxtofl@arg+2)^0,7,c
   956  00330E                     l1864:
   957  00330E  90D8               	bcf	status,0,c
   958  003310  320F               	rrcf	___xxtofl@exp^0,f,c
   959  003312  C00F  F00A         	movff	___xxtofl@exp,??___xxtofl
   960  003316  6A0B               	clrf	(??___xxtofl+1)^0,c
   961  003318  6A0C               	clrf	(??___xxtofl+2)^0,c
   962  00331A  6A0D               	clrf	(??___xxtofl+3)^0,c
   963  00331C  C00A  F00D         	movff	??___xxtofl,??___xxtofl+3
   964  003320  6A0C               	clrf	(??___xxtofl+2)^0,c
   965  003322  6A0B               	clrf	(??___xxtofl+1)^0,c
   966  003324  6A0A               	clrf	??___xxtofl^0,c
   967  003326  500A               	movf	??___xxtofl^0,w,c
   968  003328  1210               	iorwf	___xxtofl@arg^0,f,c
   969  00332A  500B               	movf	(??___xxtofl+1)^0,w,c
   970  00332C  1211               	iorwf	(___xxtofl@arg+1)^0,f,c
   971  00332E  500C               	movf	(??___xxtofl+2)^0,w,c
   972  003330  1212               	iorwf	(___xxtofl@arg+2)^0,f,c
   973  003332  500D               	movf	(??___xxtofl+3)^0,w,c
   974  003334  1213               	iorwf	(___xxtofl@arg+3)^0,f,c
   975  003336  500E               	movf	___xxtofl@sign^0,w,c
   976  003338  B4D8               	btfsc	status,2,c
   977  00333A  EFA1  F019         	goto	u1691
   978  00333E  EFA3  F019         	goto	u1690
   979  003342                     u1691:
   980  003342  EFAB  F019         	goto	l1874
   981  003346                     u1690:
   982  003346  BE09               	btfsc	(___xxtofl@val+3)^0,7,c
   983  003348  EFAA  F019         	goto	u1700
   984  00334C  EFA8  F019         	goto	u1701
   985  003350                     u1701:
   986  003350  EFAB  F019         	goto	l1874
   987  003354                     u1700:
   988  003354  8E13               	bsf	(___xxtofl@arg+3)^0,7,c
   989  003356                     l1874:
   990  003356  C010  F006         	movff	___xxtofl@arg,?___xxtofl
   991  00335A  C011  F007         	movff	___xxtofl@arg+1,?___xxtofl+1
   992  00335E  C012  F008         	movff	___xxtofl@arg+2,?___xxtofl+2
   993  003362  C013  F009         	movff	___xxtofl@arg+3,?___xxtofl+3
   994  003366                     l839:
   995  003366  0012               	return		;funcret
   996  003368                     __end_of___xxtofl:
   997                           	callstack 0
   998                           
   999 ;; *************** function ___fltol *****************
  1000 ;; Defined at:
  1001 ;;		line 43 in file "C:\Program Files\Microchip\xc8\v2.32\pic\sources\c99\common\fltol.c"
  1002 ;; Parameters:    Size  Location     Type
  1003 ;;  f1              4   68[COMRAM] unsigned char 
  1004 ;; Auto vars:     Size  Location     Type
  1005 ;;  exp1            1   77[COMRAM] unsigned char 
  1006 ;;  sign1           1   76[COMRAM] unsigned char 
  1007 ;; Return value:  Size  Location     Type
  1008 ;;                  4   68[COMRAM] long 
  1009 ;; Registers used:
  1010 ;;		wreg, status,2, status,0
  1011 ;; Tracked objects:
  1012 ;;		On entry : 0/0
  1013 ;;		On exit  : 0/0
  1014 ;;		Unchanged: 0/0
  1015 ;; Data sizes:     COMRAM   BANK0   BANK1   BANK2
  1016 ;;      Params:         4       0       0       0
  1017 ;;      Locals:         2       0       0       0
  1018 ;;      Temps:          4       0       0       0
  1019 ;;      Totals:        10       0       0       0
  1020 ;;Total ram usage:       10 bytes
  1021 ;; Hardware stack levels used: 1
  1022 ;; This function calls:
  1023 ;;		Nothing
  1024 ;; This function is called by:
  1025 ;;		_main
  1026 ;; This function uses a non-reentrant model
  1027 ;;
  1028                           
  1029                           	psect	text2
  1030  0030AE                     __ptext2:
  1031                           	callstack 0
  1032  0030AE                     ___fltol:
  1033                           	callstack 30
  1034  0030AE  3447               	rlcf	(___fltol@f1+2)^0,w,c
  1035  0030B0  3448               	rlcf	(___fltol@f1+3)^0,w,c
  1036  0030B2  6E4E               	movwf	___fltol@exp1^0,c
  1037  0030B4  504E               	movf	___fltol@exp1^0,w,c
  1038  0030B6  A4D8               	btfss	status,2,c
  1039  0030B8  EF60  F018         	goto	u1541
  1040  0030BC  EF62  F018         	goto	u1540
  1041  0030C0                     u1541:
  1042  0030C0  EF6C  F018         	goto	l1794
  1043  0030C4                     u1540:
  1044  0030C4                     l1790:
  1045  0030C4  0E00               	movlw	0
  1046  0030C6  6E45               	movwf	?___fltol^0,c
  1047  0030C8  0E00               	movlw	0
  1048  0030CA  6E46               	movwf	(?___fltol+1)^0,c
  1049  0030CC  0E00               	movlw	0
  1050  0030CE  6E47               	movwf	(?___fltol+2)^0,c
  1051  0030D0  0E00               	movlw	0
  1052  0030D2  6E48               	movwf	(?___fltol+3)^0,c
  1053  0030D4  EFD9  F018         	goto	l478
  1054  0030D8                     l1794:
  1055  0030D8  C045  F049         	movff	___fltol@f1,??___fltol
  1056  0030DC  C046  F04A         	movff	___fltol@f1+1,??___fltol+1
  1057  0030E0  C047  F04B         	movff	___fltol@f1+2,??___fltol+2
  1058  0030E4  C048  F04C         	movff	___fltol@f1+3,??___fltol+3
  1059  0030E8  0E20               	movlw	32
  1060  0030EA  EF7C  F018         	goto	u1550
  1061  0030EE                     u1555:
  1062  0030EE  90D8               	bcf	status,0,c
  1063  0030F0  324C               	rrcf	(??___fltol+3)^0,f,c
  1064  0030F2  324B               	rrcf	(??___fltol+2)^0,f,c
  1065  0030F4  324A               	rrcf	(??___fltol+1)^0,f,c
  1066  0030F6  3249               	rrcf	??___fltol^0,f,c
  1067  0030F8                     u1550:
  1068  0030F8  2EE8               	decfsz	wreg,f,c
  1069  0030FA  EF77  F018         	goto	u1555
  1070  0030FE  5049               	movf	??___fltol^0,w,c
  1071  003100  6E4D               	movwf	___fltol@sign1^0,c
  1072  003102  8E47               	bsf	(___fltol@f1+2)^0,7,c
  1073  003104  0EFF               	movlw	255
  1074  003106  1645               	andwf	___fltol@f1^0,f,c
  1075  003108  0EFF               	movlw	255
  1076  00310A  1646               	andwf	(___fltol@f1+1)^0,f,c
  1077  00310C  0EFF               	movlw	255
  1078  00310E  1647               	andwf	(___fltol@f1+2)^0,f,c
  1079  003110  0E00               	movlw	0
  1080  003112  1648               	andwf	(___fltol@f1+3)^0,f,c
  1081  003114  0E96               	movlw	150
  1082  003116  5E4E               	subwf	___fltol@exp1^0,f,c
  1083  003118  BE4E               	btfsc	___fltol@exp1^0,7,c
  1084  00311A  EF93  F018         	goto	u1560
  1085  00311E  EF91  F018         	goto	u1561
  1086  003122                     u1561:
  1087  003122  EFA9  F018         	goto	l1814
  1088  003126                     u1560:
  1089  003126  504E               	movf	___fltol@exp1^0,w,c
  1090  003128  0A80               	xorlw	128
  1091  00312A  0F97               	addlw	151
  1092  00312C  B0D8               	btfsc	status,0,c
  1093  00312E  EF9B  F018         	goto	u1571
  1094  003132  EF9D  F018         	goto	u1570
  1095  003136                     u1571:
  1096  003136  EF9F  F018         	goto	l1810
  1097  00313A                     u1570:
  1098  00313A  EF62  F018         	goto	l1790
  1099  00313E                     l1810:
  1100  00313E  90D8               	bcf	status,0,c
  1101  003140  3248               	rrcf	(___fltol@f1+3)^0,f,c
  1102  003142  3247               	rrcf	(___fltol@f1+2)^0,f,c
  1103  003144  3246               	rrcf	(___fltol@f1+1)^0,f,c
  1104  003146  3245               	rrcf	___fltol@f1^0,f,c
  1105  003148  3E4E               	incfsz	___fltol@exp1^0,f,c
  1106  00314A  EF9F  F018         	goto	l1810
  1107  00314E  EFC1  F018         	goto	l1824
  1108  003152                     l1814:
  1109  003152  0E1F               	movlw	31
  1110  003154  644E               	cpfsgt	___fltol@exp1^0,c
  1111  003156  EFAF  F018         	goto	u1581
  1112  00315A  EFB1  F018         	goto	u1580
  1113  00315E                     u1581:
  1114  00315E  EFB9  F018         	goto	l1822
  1115  003162                     u1580:
  1116  003162  EF62  F018         	goto	l1790
  1117  003166                     l1820:
  1118  003166  90D8               	bcf	status,0,c
  1119  003168  3645               	rlcf	___fltol@f1^0,f,c
  1120  00316A  3646               	rlcf	(___fltol@f1+1)^0,f,c
  1121  00316C  3647               	rlcf	(___fltol@f1+2)^0,f,c
  1122  00316E  3648               	rlcf	(___fltol@f1+3)^0,f,c
  1123  003170  064E               	decf	___fltol@exp1^0,f,c
  1124  003172                     l1822:
  1125  003172  504E               	movf	___fltol@exp1^0,w,c
  1126  003174  A4D8               	btfss	status,2,c
  1127  003176  EFBF  F018         	goto	u1591
  1128  00317A  EFC1  F018         	goto	u1590
  1129  00317E                     u1591:
  1130  00317E  EFB3  F018         	goto	l1820
  1131  003182                     u1590:
  1132  003182                     l1824:
  1133  003182  504D               	movf	___fltol@sign1^0,w,c
  1134  003184  B4D8               	btfsc	status,2,c
  1135  003186  EFC7  F018         	goto	u1601
  1136  00318A  EFC9  F018         	goto	u1600
  1137  00318E                     u1601:
  1138  00318E  EFD1  F018         	goto	l1828
  1139  003192                     u1600:
  1140  003192  1E48               	comf	(___fltol@f1+3)^0,f,c
  1141  003194  1E47               	comf	(___fltol@f1+2)^0,f,c
  1142  003196  1E46               	comf	(___fltol@f1+1)^0,f,c
  1143  003198  6C45               	negf	___fltol@f1^0,c
  1144  00319A  0E00               	movlw	0
  1145  00319C  2246               	addwfc	(___fltol@f1+1)^0,f,c
  1146  00319E  2247               	addwfc	(___fltol@f1+2)^0,f,c
  1147  0031A0  2248               	addwfc	(___fltol@f1+3)^0,f,c
  1148  0031A2                     l1828:
  1149  0031A2  C045  F045         	movff	___fltol@f1,?___fltol
  1150  0031A6  C046  F046         	movff	___fltol@f1+1,?___fltol+1
  1151  0031AA  C047  F047         	movff	___fltol@f1+2,?___fltol+2
  1152  0031AE  C048  F048         	movff	___fltol@f1+3,?___fltol+3
  1153  0031B2                     l478:
  1154  0031B2  0012               	return		;funcret
  1155  0031B4                     __end_of___fltol:
  1156                           	callstack 0
  1157                           
  1158 ;; *************** function ___flsub *****************
  1159 ;; Defined at:
  1160 ;;		line 245 in file "C:\Program Files\Microchip\xc8\v2.32\pic\sources\c99\common\sprcadd.c"
  1161 ;; Parameters:    Size  Location     Type
  1162 ;;  b               4   60[COMRAM] long 
  1163 ;;  a               4   64[COMRAM] long 
  1164 ;; Auto vars:     Size  Location     Type
  1165 ;;		None
  1166 ;; Return value:  Size  Location     Type
  1167 ;;                  4   60[COMRAM] long 
  1168 ;; Registers used:
  1169 ;;		wreg, status,2, status,0, cstack
  1170 ;; Tracked objects:
  1171 ;;		On entry : 0/0
  1172 ;;		On exit  : 0/0
  1173 ;;		Unchanged: 0/0
  1174 ;; Data sizes:     COMRAM   BANK0   BANK1   BANK2
  1175 ;;      Params:         8       0       0       0
  1176 ;;      Locals:         0       0       0       0
  1177 ;;      Temps:          0       0       0       0
  1178 ;;      Totals:         8       0       0       0
  1179 ;;Total ram usage:        8 bytes
  1180 ;; Hardware stack levels used: 1
  1181 ;; Hardware stack levels required when called: 1
  1182 ;; This function calls:
  1183 ;;		___fladd
  1184 ;; This function is called by:
  1185 ;;		_main
  1186 ;; This function uses a non-reentrant model
  1187 ;;
  1188                           
  1189                           	psect	text3
  1190  002F64                     __ptext3:
  1191                           	callstack 0
  1192  002F64                     ___flsub:
  1193                           	callstack 29
  1194  002F64  0E00               	movlw	0
  1195  002F66  1A41               	xorwf	___flsub@a^0,f,c
  1196  002F68  0E00               	movlw	0
  1197  002F6A  1A42               	xorwf	(___flsub@a+1)^0,f,c
  1198  002F6C  0E00               	movlw	0
  1199  002F6E  1A43               	xorwf	(___flsub@a+2)^0,f,c
  1200  002F70  0E80               	movlw	128
  1201  002F72  1A44               	xorwf	(___flsub@a+3)^0,f,c
  1202  002F74  C03D  F02D         	movff	___flsub@b,___fladd@b
  1203  002F78  C03E  F02E         	movff	___flsub@b+1,___fladd@b+1
  1204  002F7C  C03F  F02F         	movff	___flsub@b+2,___fladd@b+2
  1205  002F80  C040  F030         	movff	___flsub@b+3,___fladd@b+3
  1206  002F84  C041  F031         	movff	___flsub@a,___fladd@a
  1207  002F88  C042  F032         	movff	___flsub@a+1,___fladd@a+1
  1208  002F8C  C043  F033         	movff	___flsub@a+2,___fladd@a+2
  1209  002F90  C044  F034         	movff	___flsub@a+3,___fladd@a+3
  1210  002F94  ECA0  F01D         	call	___fladd	;wreg free
  1211  002F98  C02D  F03D         	movff	?___fladd,?___flsub
  1212  002F9C  C02E  F03E         	movff	?___fladd+1,?___flsub+1
  1213  002FA0  C02F  F03F         	movff	?___fladd+2,?___flsub+2
  1214  002FA4  C030  F040         	movff	?___fladd+3,?___flsub+3
  1215  002FA8  0012               	return		;funcret
  1216  002FAA                     __end_of___flsub:
  1217                           	callstack 0
  1218                           
  1219 ;; *************** function ___fladd *****************
  1220 ;; Defined at:
  1221 ;;		line 10 in file "C:\Program Files\Microchip\xc8\v2.32\pic\sources\c99\common\sprcadd.c"
  1222 ;; Parameters:    Size  Location     Type
  1223 ;;  b               4   44[COMRAM] long 
  1224 ;;  a               4   48[COMRAM] long 
  1225 ;; Auto vars:     Size  Location     Type
  1226 ;;  grs             1   59[COMRAM] unsigned char 
  1227 ;;  bexp            1   58[COMRAM] unsigned char 
  1228 ;;  aexp            1   57[COMRAM] unsigned char 
  1229 ;;  signs           1   56[COMRAM] unsigned char 
  1230 ;; Return value:  Size  Location     Type
  1231 ;;                  4   44[COMRAM] unsigned char 
  1232 ;; Registers used:
  1233 ;;		wreg, status,2, status,0
  1234 ;; Tracked objects:
  1235 ;;		On entry : 0/0
  1236 ;;		On exit  : 0/0
  1237 ;;		Unchanged: 0/0
  1238 ;; Data sizes:     COMRAM   BANK0   BANK1   BANK2
  1239 ;;      Params:         8       0       0       0
  1240 ;;      Locals:         4       0       0       0
  1241 ;;      Temps:          4       0       0       0
  1242 ;;      Totals:        16       0       0       0
  1243 ;;Total ram usage:       16 bytes
  1244 ;; Hardware stack levels used: 1
  1245 ;; This function calls:
  1246 ;;		Nothing
  1247 ;; This function is called by:
  1248 ;;		_main
  1249 ;;		___flsub
  1250 ;; This function uses a non-reentrant model
  1251 ;;
  1252                           
  1253                           	psect	text4
  1254  003B40                     __ptext4:
  1255                           	callstack 0
  1256  003B40                     ___fladd:
  1257                           	callstack 29
  1258  003B40  5030               	movf	(___fladd@b+3)^0,w,c
  1259  003B42  0B80               	andlw	128
  1260  003B44  6E39               	movwf	___fladd@signs^0,c
  1261  003B46  5030               	movf	(___fladd@b+3)^0,w,c
  1262  003B48  2430               	addwf	(___fladd@b+3)^0,w,c
  1263  003B4A  6E3B               	movwf	___fladd@bexp^0,c
  1264  003B4C  AE2F               	btfss	(___fladd@b+2)^0,7,c
  1265  003B4E  EFAB  F01D         	goto	u901
  1266  003B52  EFAD  F01D         	goto	u900
  1267  003B56                     u901:
  1268  003B56  EFAE  F01D         	goto	l1420
  1269  003B5A                     u900:
  1270  003B5A  803B               	bsf	___fladd@bexp^0,0,c
  1271  003B5C                     l1420:
  1272  003B5C  503B               	movf	___fladd@bexp^0,w,c
  1273  003B5E  B4D8               	btfsc	status,2,c
  1274  003B60  EFB4  F01D         	goto	u911
  1275  003B64  EFB6  F01D         	goto	u910
  1276  003B68                     u911:
  1277  003B68  EFCB  F01D         	goto	l1430
  1278  003B6C                     u910:
  1279  003B6C  283B               	incf	___fladd@bexp^0,w,c
  1280  003B6E  A4D8               	btfss	status,2,c
  1281  003B70  EFBC  F01D         	goto	u921
  1282  003B74  EFBE  F01D         	goto	u920
  1283  003B78                     u921:
  1284  003B78  EFC6  F01D         	goto	l1426
  1285  003B7C                     u920:
  1286  003B7C  0E00               	movlw	0
  1287  003B7E  6E2D               	movwf	___fladd@b^0,c
  1288  003B80  0E00               	movlw	0
  1289  003B82  6E2E               	movwf	(___fladd@b+1)^0,c
  1290  003B84  0E00               	movlw	0
  1291  003B86  6E2F               	movwf	(___fladd@b+2)^0,c
  1292  003B88  0E00               	movlw	0
  1293  003B8A  6E30               	movwf	(___fladd@b+3)^0,c
  1294  003B8C                     l1426:
  1295  003B8C  8E2F               	bsf	(___fladd@b+2)^0,7,c
  1296  003B8E  0E00               	movlw	0
  1297  003B90  6E30               	movwf	(___fladd@b+3)^0,c
  1298  003B92  EFD3  F01D         	goto	l1432
  1299  003B96                     l1430:
  1300  003B96  0E00               	movlw	0
  1301  003B98  6E2D               	movwf	___fladd@b^0,c
  1302  003B9A  0E00               	movlw	0
  1303  003B9C  6E2E               	movwf	(___fladd@b+1)^0,c
  1304  003B9E  0E00               	movlw	0
  1305  003BA0  6E2F               	movwf	(___fladd@b+2)^0,c
  1306  003BA2  0E00               	movlw	0
  1307  003BA4  6E30               	movwf	(___fladd@b+3)^0,c
  1308  003BA6                     l1432:
  1309  003BA6  5034               	movf	(___fladd@a+3)^0,w,c
  1310  003BA8  0B80               	andlw	128
  1311  003BAA  6E3A               	movwf	___fladd@aexp^0,c
  1312  003BAC  5039               	movf	___fladd@signs^0,w,c
  1313  003BAE  183A               	xorwf	___fladd@aexp^0,w,c
  1314  003BB0  B4D8               	btfsc	status,2,c
  1315  003BB2  EFDD  F01D         	goto	u931
  1316  003BB6  EFDF  F01D         	goto	u930
  1317  003BBA                     u931:
  1318  003BBA  EFE0  F01D         	goto	l1438
  1319  003BBE                     u930:
  1320  003BBE  8C39               	bsf	___fladd@signs^0,6,c
  1321  003BC0                     l1438:
  1322  003BC0  5034               	movf	(___fladd@a+3)^0,w,c
  1323  003BC2  2434               	addwf	(___fladd@a+3)^0,w,c
  1324  003BC4  6E3A               	movwf	___fladd@aexp^0,c
  1325  003BC6  AE33               	btfss	(___fladd@a+2)^0,7,c
  1326  003BC8  EFE8  F01D         	goto	u941
  1327  003BCC  EFEA  F01D         	goto	u940
  1328  003BD0                     u941:
  1329  003BD0  EFEB  F01D         	goto	l1444
  1330  003BD4                     u940:
  1331  003BD4  803A               	bsf	___fladd@aexp^0,0,c
  1332  003BD6                     l1444:
  1333  003BD6  503A               	movf	___fladd@aexp^0,w,c
  1334  003BD8  B4D8               	btfsc	status,2,c
  1335  003BDA  EFF1  F01D         	goto	u951
  1336  003BDE  EFF3  F01D         	goto	u950
  1337  003BE2                     u951:
  1338  003BE2  EF08  F01E         	goto	l1454
  1339  003BE6                     u950:
  1340  003BE6  283A               	incf	___fladd@aexp^0,w,c
  1341  003BE8  A4D8               	btfss	status,2,c
  1342  003BEA  EFF9  F01D         	goto	u961
  1343  003BEE  EFFB  F01D         	goto	u960
  1344  003BF2                     u961:
  1345  003BF2  EF03  F01E         	goto	l1450
  1346  003BF6                     u960:
  1347  003BF6  0E00               	movlw	0
  1348  003BF8  6E31               	movwf	___fladd@a^0,c
  1349  003BFA  0E00               	movlw	0
  1350  003BFC  6E32               	movwf	(___fladd@a+1)^0,c
  1351  003BFE  0E00               	movlw	0
  1352  003C00  6E33               	movwf	(___fladd@a+2)^0,c
  1353  003C02  0E00               	movlw	0
  1354  003C04  6E34               	movwf	(___fladd@a+3)^0,c
  1355  003C06                     l1450:
  1356  003C06  8E33               	bsf	(___fladd@a+2)^0,7,c
  1357  003C08  0E00               	movlw	0
  1358  003C0A  6E34               	movwf	(___fladd@a+3)^0,c
  1359  003C0C  EF10  F01E         	goto	l1456
  1360  003C10                     l1454:
  1361  003C10  0E00               	movlw	0
  1362  003C12  6E31               	movwf	___fladd@a^0,c
  1363  003C14  0E00               	movlw	0
  1364  003C16  6E32               	movwf	(___fladd@a+1)^0,c
  1365  003C18  0E00               	movlw	0
  1366  003C1A  6E33               	movwf	(___fladd@a+2)^0,c
  1367  003C1C  0E00               	movlw	0
  1368  003C1E  6E34               	movwf	(___fladd@a+3)^0,c
  1369  003C20                     l1456:
  1370  003C20  503B               	movf	___fladd@bexp^0,w,c
  1371  003C22  5C3A               	subwf	___fladd@aexp^0,w,c
  1372  003C24  B0D8               	btfsc	status,0,c
  1373  003C26  EF17  F01E         	goto	u971
  1374  003C2A  EF19  F01E         	goto	u970
  1375  003C2E                     u971:
  1376  003C2E  EF40  F01E         	goto	l1492
  1377  003C32                     u970:
  1378  003C32  AC39               	btfss	___fladd@signs^0,6,c
  1379  003C34  EF1E  F01E         	goto	u981
  1380  003C38  EF20  F01E         	goto	u980
  1381  003C3C                     u981:
  1382  003C3C  EF22  F01E         	goto	l1462
  1383  003C40                     u980:
  1384  003C40  0E80               	movlw	128
  1385  003C42  1A39               	xorwf	___fladd@signs^0,f,c
  1386  003C44                     l1462:
  1387  003C44  C03B  F03C         	movff	___fladd@bexp,___fladd@grs
  1388  003C48  C03A  F03B         	movff	___fladd@aexp,___fladd@bexp
  1389  003C4C  C03C  F03A         	movff	___fladd@grs,___fladd@aexp
  1390  003C50  C02D  F03C         	movff	___fladd@b,___fladd@grs
  1391  003C54  C031  F02D         	movff	___fladd@a,___fladd@b
  1392  003C58  C03C  F031         	movff	___fladd@grs,___fladd@a
  1393  003C5C  C02E  F03C         	movff	___fladd@b+1,___fladd@grs
  1394  003C60  C032  F02E         	movff	___fladd@a+1,___fladd@b+1
  1395  003C64  C03C  F032         	movff	___fladd@grs,___fladd@a+1
  1396  003C68  C02F  F03C         	movff	___fladd@b+2,___fladd@grs
  1397  003C6C  C033  F02F         	movff	___fladd@a+2,___fladd@b+2
  1398  003C70  C03C  F033         	movff	___fladd@grs,___fladd@a+2
  1399  003C74  C030  F03C         	movff	___fladd@b+3,___fladd@grs
  1400  003C78  C034  F030         	movff	___fladd@a+3,___fladd@b+3
  1401  003C7C  C03C  F034         	movff	___fladd@grs,___fladd@a+3
  1402  003C80                     l1492:
  1403  003C80  0E00               	movlw	0
  1404  003C82  6E3C               	movwf	___fladd@grs^0,c
  1405  003C84  503B               	movf	___fladd@bexp^0,w,c
  1406  003C86  C03A  F035         	movff	___fladd@aexp,??___fladd
  1407  003C8A  6A36               	clrf	(??___fladd+1)^0,c
  1408  003C8C  5E35               	subwf	??___fladd^0,f,c
  1409  003C8E  0E00               	movlw	0
  1410  003C90  5A36               	subwfb	(??___fladd+1)^0,f,c
  1411  003C92  BE36               	btfsc	(??___fladd+1)^0,7,c
  1412  003C94  EF55  F01E         	goto	u991
  1413  003C98  5036               	movf	(??___fladd+1)^0,w,c
  1414  003C9A  E109               	bnz	u990
  1415  003C9C  0E1A               	movlw	26
  1416  003C9E  5C35               	subwf	??___fladd^0,w,c
  1417  003CA0  A0D8               	btfss	status,0,c
  1418  003CA2  EF55  F01E         	goto	u991
  1419  003CA6  EF57  F01E         	goto	u990
  1420  003CAA                     u991:
  1421  003CAA  EF8E  F01E         	goto	l710
  1422  003CAE                     u990:
  1423  003CAE  502D               	movf	___fladd@b^0,w,c
  1424  003CB0  102E               	iorwf	(___fladd@b+1)^0,w,c
  1425  003CB2  102F               	iorwf	(___fladd@b+2)^0,w,c
  1426  003CB4  1030               	iorwf	(___fladd@b+3)^0,w,c
  1427  003CB6  A4D8               	btfss	status,2,c
  1428  003CB8  EF60  F01E         	goto	u1001
  1429  003CBC  EF63  F01E         	goto	u1000
  1430  003CC0                     u1001:
  1431  003CC0  0E01               	movlw	1
  1432  003CC2  EF64  F01E         	goto	u1010
  1433  003CC6                     u1000:
  1434  003CC6  0E00               	movlw	0
  1435  003CC8                     u1010:
  1436  003CC8  6E3C               	movwf	___fladd@grs^0,c
  1437  003CCA  0E00               	movlw	0
  1438  003CCC  6E2D               	movwf	___fladd@b^0,c
  1439  003CCE  0E00               	movlw	0
  1440  003CD0  6E2E               	movwf	(___fladd@b+1)^0,c
  1441  003CD2  0E00               	movlw	0
  1442  003CD4  6E2F               	movwf	(___fladd@b+2)^0,c
  1443  003CD6  0E00               	movlw	0
  1444  003CD8  6E30               	movwf	(___fladd@b+3)^0,c
  1445  003CDA  C03A  F03B         	movff	___fladd@aexp,___fladd@bexp
  1446  003CDE  EF97  F01E         	goto	l709
  1447  003CE2                     l711:
  1448  003CE2  A03C               	btfss	___fladd@grs^0,0,c
  1449  003CE4  EF76  F01E         	goto	u1021
  1450  003CE8  EF78  F01E         	goto	u1020
  1451  003CEC                     u1021:
  1452  003CEC  EF7E  F01E         	goto	l1504
  1453  003CF0                     u1020:
  1454  003CF0  90D8               	bcf	status,0,c
  1455  003CF2  303C               	rrcf	___fladd@grs^0,w,c
  1456  003CF4  0901               	iorlw	1
  1457  003CF6  6E3C               	movwf	___fladd@grs^0,c
  1458  003CF8  EF80  F01E         	goto	l1506
  1459  003CFC                     l1504:
  1460  003CFC  90D8               	bcf	status,0,c
  1461  003CFE  323C               	rrcf	___fladd@grs^0,f,c
  1462  003D00                     l1506:
  1463  003D00  A02D               	btfss	___fladd@b^0,0,c
  1464  003D02  EF85  F01E         	goto	u1031
  1465  003D06  EF87  F01E         	goto	u1030
  1466  003D0A                     u1031:
  1467  003D0A  EF88  F01E         	goto	l1510
  1468  003D0E                     u1030:
  1469  003D0E  8E3C               	bsf	___fladd@grs^0,7,c
  1470  003D10                     l1510:
  1471  003D10  3430               	rlcf	(___fladd@b+3)^0,w,c
  1472  003D12  3230               	rrcf	(___fladd@b+3)^0,f,c
  1473  003D14  322F               	rrcf	(___fladd@b+2)^0,f,c
  1474  003D16  322E               	rrcf	(___fladd@b+1)^0,f,c
  1475  003D18  322D               	rrcf	___fladd@b^0,f,c
  1476  003D1A  2A3B               	incf	___fladd@bexp^0,f,c
  1477  003D1C                     l710:
  1478  003D1C  503A               	movf	___fladd@aexp^0,w,c
  1479  003D1E  5C3B               	subwf	___fladd@bexp^0,w,c
  1480  003D20  A0D8               	btfss	status,0,c
  1481  003D22  EF95  F01E         	goto	u1041
  1482  003D26  EF97  F01E         	goto	u1040
  1483  003D2A                     u1041:
  1484  003D2A  EF71  F01E         	goto	l711
  1485  003D2E                     u1040:
  1486  003D2E                     l709:
  1487  003D2E  BC39               	btfsc	___fladd@signs^0,6,c
  1488  003D30  EF9C  F01E         	goto	u1051
  1489  003D34  EF9E  F01E         	goto	u1050
  1490  003D38                     u1051:
  1491  003D38  EFDE  F01E         	goto	l1538
  1492  003D3C                     u1050:
  1493  003D3C  503B               	movf	___fladd@bexp^0,w,c
  1494  003D3E  A4D8               	btfss	status,2,c
  1495  003D40  EFA4  F01E         	goto	u1061
  1496  003D44  EFA6  F01E         	goto	u1060
  1497  003D48                     u1061:
  1498  003D48  EFB0  F01E         	goto	l1520
  1499  003D4C                     u1060:
  1500  003D4C  0E00               	movlw	0
  1501  003D4E  6E2D               	movwf	?___fladd^0,c
  1502  003D50  0E00               	movlw	0
  1503  003D52  6E2E               	movwf	(?___fladd+1)^0,c
  1504  003D54  0E00               	movlw	0
  1505  003D56  6E2F               	movwf	(?___fladd+2)^0,c
  1506  003D58  0E00               	movlw	0
  1507  003D5A  6E30               	movwf	(?___fladd+3)^0,c
  1508  003D5C  EFFF  F01F         	goto	l718
  1509  003D60                     l1520:
  1510  003D60  5031               	movf	___fladd@a^0,w,c
  1511  003D62  262D               	addwf	___fladd@b^0,f,c
  1512  003D64  5032               	movf	(___fladd@a+1)^0,w,c
  1513  003D66  222E               	addwfc	(___fladd@b+1)^0,f,c
  1514  003D68  5033               	movf	(___fladd@a+2)^0,w,c
  1515  003D6A  222F               	addwfc	(___fladd@b+2)^0,f,c
  1516  003D6C  5034               	movf	(___fladd@a+3)^0,w,c
  1517  003D6E  2230               	addwfc	(___fladd@b+3)^0,f,c
  1518  003D70  A030               	btfss	(___fladd@b+3)^0,0,c
  1519  003D72  EFBD  F01E         	goto	u1071
  1520  003D76  EFBF  F01E         	goto	u1070
  1521  003D7A                     u1071:
  1522  003D7A  EF6B  F01F         	goto	l1574
  1523  003D7E                     u1070:
  1524  003D7E  A03C               	btfss	___fladd@grs^0,0,c
  1525  003D80  EFC4  F01E         	goto	u1081
  1526  003D84  EFC6  F01E         	goto	u1080
  1527  003D88                     u1081:
  1528  003D88  EFCC  F01E         	goto	l1528
  1529  003D8C                     u1080:
  1530  003D8C  90D8               	bcf	status,0,c
  1531  003D8E  303C               	rrcf	___fladd@grs^0,w,c
  1532  003D90  0901               	iorlw	1
  1533  003D92  6E3C               	movwf	___fladd@grs^0,c
  1534  003D94  EFCE  F01E         	goto	l1530
  1535  003D98                     l1528:
  1536  003D98  90D8               	bcf	status,0,c
  1537  003D9A  323C               	rrcf	___fladd@grs^0,f,c
  1538  003D9C                     l1530:
  1539  003D9C  A02D               	btfss	___fladd@b^0,0,c
  1540  003D9E  EFD3  F01E         	goto	u1091
  1541  003DA2  EFD5  F01E         	goto	u1090
  1542  003DA6                     u1091:
  1543  003DA6  EFD6  F01E         	goto	l1534
  1544  003DAA                     u1090:
  1545  003DAA  8E3C               	bsf	___fladd@grs^0,7,c
  1546  003DAC                     l1534:
  1547  003DAC  3430               	rlcf	(___fladd@b+3)^0,w,c
  1548  003DAE  3230               	rrcf	(___fladd@b+3)^0,f,c
  1549  003DB0  322F               	rrcf	(___fladd@b+2)^0,f,c
  1550  003DB2  322E               	rrcf	(___fladd@b+1)^0,f,c
  1551  003DB4  322D               	rrcf	___fladd@b^0,f,c
  1552  003DB6  2A3B               	incf	___fladd@bexp^0,f,c
  1553  003DB8  EF6B  F01F         	goto	l1574
  1554  003DBC                     l1538:
  1555  003DBC  5031               	movf	___fladd@a^0,w,c
  1556  003DBE  5C2D               	subwf	___fladd@b^0,w,c
  1557  003DC0  5032               	movf	(___fladd@a+1)^0,w,c
  1558  003DC2  582E               	subwfb	(___fladd@b+1)^0,w,c
  1559  003DC4  5033               	movf	(___fladd@a+2)^0,w,c
  1560  003DC6  582F               	subwfb	(___fladd@b+2)^0,w,c
  1561  003DC8  5030               	movf	(___fladd@b+3)^0,w,c
  1562  003DCA  0A80               	xorlw	128
  1563  003DCC  6E35               	movwf	??___fladd^0,c
  1564  003DCE  5034               	movf	(___fladd@a+3)^0,w,c
  1565  003DD0  0A80               	xorlw	128
  1566  003DD2  5835               	subwfb	??___fladd^0,w,c
  1567  003DD4  B0D8               	btfsc	status,0,c
  1568  003DD6  EFEF  F01E         	goto	u1101
  1569  003DDA  EFF1  F01E         	goto	u1100
  1570  003DDE                     u1101:
  1571  003DDE  EF1C  F01F         	goto	l1548
  1572  003DE2                     u1100:
  1573  003DE2  502D               	movf	___fladd@b^0,w,c
  1574  003DE4  5C31               	subwf	___fladd@a^0,w,c
  1575  003DE6  6E35               	movwf	??___fladd^0,c
  1576  003DE8  502E               	movf	(___fladd@b+1)^0,w,c
  1577  003DEA  5832               	subwfb	(___fladd@a+1)^0,w,c
  1578  003DEC  6E36               	movwf	(??___fladd+1)^0,c
  1579  003DEE  502F               	movf	(___fladd@b+2)^0,w,c
  1580  003DF0  5833               	subwfb	(___fladd@a+2)^0,w,c
  1581  003DF2  6E37               	movwf	(??___fladd+2)^0,c
  1582  003DF4  5030               	movf	(___fladd@b+3)^0,w,c
  1583  003DF6  5834               	subwfb	(___fladd@a+3)^0,w,c
  1584  003DF8  6E38               	movwf	(??___fladd+3)^0,c
  1585  003DFA  0EFF               	movlw	255
  1586  003DFC  2435               	addwf	??___fladd^0,w,c
  1587  003DFE  6E2D               	movwf	___fladd@b^0,c
  1588  003E00  0EFF               	movlw	255
  1589  003E02  2036               	addwfc	(??___fladd+1)^0,w,c
  1590  003E04  6E2E               	movwf	(___fladd@b+1)^0,c
  1591  003E06  0EFF               	movlw	255
  1592  003E08  2037               	addwfc	(??___fladd+2)^0,w,c
  1593  003E0A  6E2F               	movwf	(___fladd@b+2)^0,c
  1594  003E0C  0EFF               	movlw	255
  1595  003E0E  2038               	addwfc	(??___fladd+3)^0,w,c
  1596  003E10  6E30               	movwf	(___fladd@b+3)^0,c
  1597  003E12  0E80               	movlw	128
  1598  003E14  1A39               	xorwf	___fladd@signs^0,f,c
  1599  003E16  6C3C               	negf	___fladd@grs^0,c
  1600  003E18  503C               	movf	___fladd@grs^0,w,c
  1601  003E1A  A4D8               	btfss	status,2,c
  1602  003E1C  EF12  F01F         	goto	u1111
  1603  003E20  EF14  F01F         	goto	u1110
  1604  003E24                     u1111:
  1605  003E24  EF24  F01F         	goto	l726
  1606  003E28                     u1110:
  1607  003E28  0E01               	movlw	1
  1608  003E2A  262D               	addwf	___fladd@b^0,f,c
  1609  003E2C  0E00               	movlw	0
  1610  003E2E  222E               	addwfc	(___fladd@b+1)^0,f,c
  1611  003E30  222F               	addwfc	(___fladd@b+2)^0,f,c
  1612  003E32  2230               	addwfc	(___fladd@b+3)^0,f,c
  1613  003E34  EF24  F01F         	goto	l726
  1614  003E38                     l1548:
  1615  003E38  5031               	movf	___fladd@a^0,w,c
  1616  003E3A  5E2D               	subwf	___fladd@b^0,f,c
  1617  003E3C  5032               	movf	(___fladd@a+1)^0,w,c
  1618  003E3E  5A2E               	subwfb	(___fladd@b+1)^0,f,c
  1619  003E40  5033               	movf	(___fladd@a+2)^0,w,c
  1620  003E42  5A2F               	subwfb	(___fladd@b+2)^0,f,c
  1621  003E44  5034               	movf	(___fladd@a+3)^0,w,c
  1622  003E46  5A30               	subwfb	(___fladd@b+3)^0,f,c
  1623  003E48                     l726:
  1624  003E48  502D               	movf	___fladd@b^0,w,c
  1625  003E4A  102E               	iorwf	(___fladd@b+1)^0,w,c
  1626  003E4C  102F               	iorwf	(___fladd@b+2)^0,w,c
  1627  003E4E  1030               	iorwf	(___fladd@b+3)^0,w,c
  1628  003E50  A4D8               	btfss	status,2,c
  1629  003E52  EF2D  F01F         	goto	u1121
  1630  003E56  EF2F  F01F         	goto	u1120
  1631  003E5A                     u1121:
  1632  003E5A  EF64  F01F         	goto	l1572
  1633  003E5E                     u1120:
  1634  003E5E  503C               	movf	___fladd@grs^0,w,c
  1635  003E60  A4D8               	btfss	status,2,c
  1636  003E62  EF35  F01F         	goto	u1131
  1637  003E66  EF37  F01F         	goto	u1130
  1638  003E6A                     u1131:
  1639  003E6A  EF64  F01F         	goto	l1572
  1640  003E6E                     u1130:
  1641  003E6E  0E00               	movlw	0
  1642  003E70  6E2D               	movwf	?___fladd^0,c
  1643  003E72  0E00               	movlw	0
  1644  003E74  6E2E               	movwf	(?___fladd+1)^0,c
  1645  003E76  0E00               	movlw	0
  1646  003E78  6E2F               	movwf	(?___fladd+2)^0,c
  1647  003E7A  0E00               	movlw	0
  1648  003E7C  6E30               	movwf	(?___fladd+3)^0,c
  1649  003E7E  EFFF  F01F         	goto	l718
  1650  003E82                     l1556:
  1651  003E82  90D8               	bcf	status,0,c
  1652  003E84  362D               	rlcf	___fladd@b^0,f,c
  1653  003E86  362E               	rlcf	(___fladd@b+1)^0,f,c
  1654  003E88  362F               	rlcf	(___fladd@b+2)^0,f,c
  1655  003E8A  3630               	rlcf	(___fladd@b+3)^0,f,c
  1656  003E8C  AE3C               	btfss	___fladd@grs^0,7,c
  1657  003E8E  EF4B  F01F         	goto	u1141
  1658  003E92  EF4D  F01F         	goto	u1140
  1659  003E96                     u1141:
  1660  003E96  EF4E  F01F         	goto	l1562
  1661  003E9A                     u1140:
  1662  003E9A  802D               	bsf	___fladd@b^0,0,c
  1663  003E9C                     l1562:
  1664  003E9C  A03C               	btfss	___fladd@grs^0,0,c
  1665  003E9E  EF53  F01F         	goto	u1151
  1666  003EA2  EF55  F01F         	goto	u1150
  1667  003EA6                     u1151:
  1668  003EA6  EF59  F01F         	goto	l1566
  1669  003EAA                     u1150:
  1670  003EAA  80D8               	bsf	status,0,c
  1671  003EAC  363C               	rlcf	___fladd@grs^0,f,c
  1672  003EAE  EF5B  F01F         	goto	l1568
  1673  003EB2                     l1566:
  1674  003EB2  90D8               	bcf	status,0,c
  1675  003EB4  363C               	rlcf	___fladd@grs^0,f,c
  1676  003EB6                     l1568:
  1677  003EB6  503B               	movf	___fladd@bexp^0,w,c
  1678  003EB8  B4D8               	btfsc	status,2,c
  1679  003EBA  EF61  F01F         	goto	u1161
  1680  003EBE  EF63  F01F         	goto	u1160
  1681  003EC2                     u1161:
  1682  003EC2  EF64  F01F         	goto	l1572
  1683  003EC6                     u1160:
  1684  003EC6  063B               	decf	___fladd@bexp^0,f,c
  1685  003EC8                     l1572:
  1686  003EC8  AE2F               	btfss	(___fladd@b+2)^0,7,c
  1687  003ECA  EF69  F01F         	goto	u1171
  1688  003ECE  EF6B  F01F         	goto	u1170
  1689  003ED2                     u1171:
  1690  003ED2  EF41  F01F         	goto	l1556
  1691  003ED6                     u1170:
  1692  003ED6                     l1574:
  1693  003ED6  0E00               	movlw	0
  1694  003ED8  6E3A               	movwf	___fladd@aexp^0,c
  1695  003EDA  AE3C               	btfss	___fladd@grs^0,7,c
  1696  003EDC  EF72  F01F         	goto	u1181
  1697  003EE0  EF74  F01F         	goto	u1180
  1698  003EE4                     u1181:
  1699  003EE4  EF8C  F01F         	goto	l735
  1700  003EE8                     u1180:
  1701  003EE8  C03C  F035         	movff	___fladd@grs,??___fladd
  1702  003EEC  0E7F               	movlw	127
  1703  003EEE  1635               	andwf	??___fladd^0,f,c
  1704  003EF0  B4D8               	btfsc	status,2,c
  1705  003EF2  EF7D  F01F         	goto	u1191
  1706  003EF6  EF7F  F01F         	goto	u1190
  1707  003EFA                     u1191:
  1708  003EFA  EF83  F01F         	goto	l736
  1709  003EFE                     u1190:
  1710  003EFE                     l1580:
  1711  003EFE  0E01               	movlw	1
  1712  003F00  6E3A               	movwf	___fladd@aexp^0,c
  1713  003F02  EF8C  F01F         	goto	l735
  1714  003F06                     l736:
  1715  003F06  A02D               	btfss	___fladd@b^0,0,c
  1716  003F08  EF88  F01F         	goto	u1201
  1717  003F0C  EF8A  F01F         	goto	u1200
  1718  003F10                     u1201:
  1719  003F10  EF8C  F01F         	goto	l735
  1720  003F14                     u1200:
  1721  003F14  EF7F  F01F         	goto	l1580
  1722  003F18                     l735:
  1723  003F18  503A               	movf	___fladd@aexp^0,w,c
  1724  003F1A  B4D8               	btfsc	status,2,c
  1725  003F1C  EF92  F01F         	goto	u1211
  1726  003F20  EF94  F01F         	goto	u1210
  1727  003F24                     u1211:
  1728  003F24  EFBF  F01F         	goto	l1592
  1729  003F28                     u1210:
  1730  003F28  0E01               	movlw	1
  1731  003F2A  262D               	addwf	___fladd@b^0,f,c
  1732  003F2C  0E00               	movlw	0
  1733  003F2E  222E               	addwfc	(___fladd@b+1)^0,f,c
  1734  003F30  222F               	addwfc	(___fladd@b+2)^0,f,c
  1735  003F32  2230               	addwfc	(___fladd@b+3)^0,f,c
  1736  003F34  A030               	btfss	(___fladd@b+3)^0,0,c
  1737  003F36  EF9F  F01F         	goto	u1221
  1738  003F3A  EFA1  F01F         	goto	u1220
  1739  003F3E                     u1221:
  1740  003F3E  EFBF  F01F         	goto	l1592
  1741  003F42                     u1220:
  1742  003F42  C02D  F035         	movff	___fladd@b,??___fladd
  1743  003F46  C02E  F036         	movff	___fladd@b+1,??___fladd+1
  1744  003F4A  C02F  F037         	movff	___fladd@b+2,??___fladd+2
  1745  003F4E  C030  F038         	movff	___fladd@b+3,??___fladd+3
  1746  003F52  3438               	rlcf	(??___fladd+3)^0,w,c
  1747  003F54  3238               	rrcf	(??___fladd+3)^0,f,c
  1748  003F56  3237               	rrcf	(??___fladd+2)^0,f,c
  1749  003F58  3236               	rrcf	(??___fladd+1)^0,f,c
  1750  003F5A  3235               	rrcf	??___fladd^0,f,c
  1751  003F5C  C035  F02D         	movff	??___fladd,___fladd@b
  1752  003F60  C036  F02E         	movff	??___fladd+1,___fladd@b+1
  1753  003F64  C037  F02F         	movff	??___fladd+2,___fladd@b+2
  1754  003F68  C038  F030         	movff	??___fladd+3,___fladd@b+3
  1755  003F6C  283B               	incf	___fladd@bexp^0,w,c
  1756  003F6E  B4D8               	btfsc	status,2,c
  1757  003F70  EFBC  F01F         	goto	u1231
  1758  003F74  EFBE  F01F         	goto	u1230
  1759  003F78                     u1231:
  1760  003F78  EFBF  F01F         	goto	l1592
  1761  003F7C                     u1230:
  1762  003F7C  2A3B               	incf	___fladd@bexp^0,f,c
  1763  003F7E                     l1592:
  1764  003F7E  283B               	incf	___fladd@bexp^0,w,c
  1765  003F80  B4D8               	btfsc	status,2,c
  1766  003F82  EFC5  F01F         	goto	u1241
  1767  003F86  EFC7  F01F         	goto	u1240
  1768  003F8A                     u1241:
  1769  003F8A  EFCF  F01F         	goto	l1596
  1770  003F8E                     u1240:
  1771  003F8E  503B               	movf	___fladd@bexp^0,w,c
  1772  003F90  A4D8               	btfss	status,2,c
  1773  003F92  EFCD  F01F         	goto	u1251
  1774  003F96  EFCF  F01F         	goto	u1250
  1775  003F9A                     u1251:
  1776  003F9A  EFE1  F01F         	goto	l1600
  1777  003F9E                     u1250:
  1778  003F9E                     l1596:
  1779  003F9E  0E00               	movlw	0
  1780  003FA0  6E2D               	movwf	___fladd@b^0,c
  1781  003FA2  0E00               	movlw	0
  1782  003FA4  6E2E               	movwf	(___fladd@b+1)^0,c
  1783  003FA6  0E00               	movlw	0
  1784  003FA8  6E2F               	movwf	(___fladd@b+2)^0,c
  1785  003FAA  0E00               	movlw	0
  1786  003FAC  6E30               	movwf	(___fladd@b+3)^0,c
  1787  003FAE  503B               	movf	___fladd@bexp^0,w,c
  1788  003FB0  A4D8               	btfss	status,2,c
  1789  003FB2  EFDD  F01F         	goto	u1261
  1790  003FB6  EFDF  F01F         	goto	u1260
  1791  003FBA                     u1261:
  1792  003FBA  EFE1  F01F         	goto	l1600
  1793  003FBE                     u1260:
  1794  003FBE  0E00               	movlw	0
  1795  003FC0  6E39               	movwf	___fladd@signs^0,c
  1796  003FC2                     l1600:
  1797  003FC2  A03B               	btfss	___fladd@bexp^0,0,c
  1798  003FC4  EFE6  F01F         	goto	u1271
  1799  003FC8  EFE8  F01F         	goto	u1270
  1800  003FCC                     u1271:
  1801  003FCC  EFEB  F01F         	goto	l1604
  1802  003FD0                     u1270:
  1803  003FD0  8E2F               	bsf	(___fladd@b+2)^0,7,c
  1804  003FD2  EFEC  F01F         	goto	l1606
  1805  003FD6                     l1604:
  1806  003FD6  9E2F               	bcf	(___fladd@b+2)^0,7,c
  1807  003FD8                     l1606:
  1808  003FD8  90D8               	bcf	status,0,c
  1809  003FDA  303B               	rrcf	___fladd@bexp^0,w,c
  1810  003FDC  6E30               	movwf	(___fladd@b+3)^0,c
  1811  003FDE  AE39               	btfss	___fladd@signs^0,7,c
  1812  003FE0  EFF4  F01F         	goto	u1281
  1813  003FE4  EFF6  F01F         	goto	u1280
  1814  003FE8                     u1281:
  1815  003FE8  EFF7  F01F         	goto	l1612
  1816  003FEC                     u1280:
  1817  003FEC  8E30               	bsf	(___fladd@b+3)^0,7,c
  1818  003FEE                     l1612:
  1819  003FEE  C02D  F02D         	movff	___fladd@b,?___fladd
  1820  003FF2  C02E  F02E         	movff	___fladd@b+1,?___fladd+1
  1821  003FF6  C02F  F02F         	movff	___fladd@b+2,?___fladd+2
  1822  003FFA  C030  F030         	movff	___fladd@b+3,?___fladd+3
  1823  003FFE                     l718:
  1824  003FFE  0012               	return		;funcret
  1825  004000                     __end_of___fladd:
  1826                           	callstack 0
  1827                           
  1828 ;; *************** function ___flmul *****************
  1829 ;; Defined at:
  1830 ;;		line 8 in file "C:\Program Files\Microchip\xc8\v2.32\pic\sources\c99\common\sprcmul.c"
  1831 ;; Parameters:    Size  Location     Type
  1832 ;;  b               4   19[COMRAM] unsigned char 
  1833 ;;  a               4   23[COMRAM] unsigned char 
  1834 ;; Auto vars:     Size  Location     Type
  1835 ;;  prod            4   38[COMRAM] struct .
  1836 ;;  grs             4   32[COMRAM] unsigned long 
  1837 ;;  temp            2   42[COMRAM] struct .
  1838 ;;  bexp            1   37[COMRAM] unsigned char 
  1839 ;;  aexp            1   36[COMRAM] unsigned char 
  1840 ;;  sign            1   31[COMRAM] unsigned char 
  1841 ;; Return value:  Size  Location     Type
  1842 ;;                  4   19[COMRAM] unsigned char 
  1843 ;; Registers used:
  1844 ;;		wreg, status,2, status,0, prodl, prodh
  1845 ;; Tracked objects:
  1846 ;;		On entry : 0/0
  1847 ;;		On exit  : 0/0
  1848 ;;		Unchanged: 0/0
  1849 ;; Data sizes:     COMRAM   BANK0   BANK1   BANK2
  1850 ;;      Params:         8       0       0       0
  1851 ;;      Locals:        13       0       0       0
  1852 ;;      Temps:          4       0       0       0
  1853 ;;      Totals:        25       0       0       0
  1854 ;;Total ram usage:       25 bytes
  1855 ;; Hardware stack levels used: 1
  1856 ;; This function calls:
  1857 ;;		Nothing
  1858 ;; This function is called by:
  1859 ;;		_main
  1860 ;; This function uses a non-reentrant model
  1861 ;;
  1862                           
  1863                           	psect	text5
  1864  003716                     __ptext5:
  1865                           	callstack 0
  1866  003716                     ___flmul:
  1867                           	callstack 30
  1868  003716  5017               	movf	(___flmul@b+3)^0,w,c
  1869  003718  0B80               	andlw	128
  1870  00371A  6E20               	movwf	___flmul@sign^0,c
  1871  00371C  5017               	movf	(___flmul@b+3)^0,w,c
  1872  00371E  2417               	addwf	(___flmul@b+3)^0,w,c
  1873  003720  6E26               	movwf	___flmul@bexp^0,c
  1874  003722  AE16               	btfss	(___flmul@b+2)^0,7,c
  1875  003724  EF96  F01B         	goto	u1301
  1876  003728  EF98  F01B         	goto	u1300
  1877  00372C                     u1301:
  1878  00372C  EF99  F01B         	goto	l1636
  1879  003730                     u1300:
  1880  003730  8026               	bsf	___flmul@bexp^0,0,c
  1881  003732                     l1636:
  1882  003732  5026               	movf	___flmul@bexp^0,w,c
  1883  003734  B4D8               	btfsc	status,2,c
  1884  003736  EF9F  F01B         	goto	u1311
  1885  00373A  EFA1  F01B         	goto	u1310
  1886  00373E                     u1311:
  1887  00373E  EFB4  F01B         	goto	l1644
  1888  003742                     u1310:
  1889  003742  2826               	incf	___flmul@bexp^0,w,c
  1890  003744  A4D8               	btfss	status,2,c
  1891  003746  EFA7  F01B         	goto	u1321
  1892  00374A  EFA9  F01B         	goto	u1320
  1893  00374E                     u1321:
  1894  00374E  EFB1  F01B         	goto	l1642
  1895  003752                     u1320:
  1896  003752  0E00               	movlw	0
  1897  003754  6E14               	movwf	___flmul@b^0,c
  1898  003756  0E00               	movlw	0
  1899  003758  6E15               	movwf	(___flmul@b+1)^0,c
  1900  00375A  0E00               	movlw	0
  1901  00375C  6E16               	movwf	(___flmul@b+2)^0,c
  1902  00375E  0E00               	movlw	0
  1903  003760  6E17               	movwf	(___flmul@b+3)^0,c
  1904  003762                     l1642:
  1905  003762  8E16               	bsf	(___flmul@b+2)^0,7,c
  1906  003764  EFBC  F01B         	goto	l1646
  1907  003768                     l1644:
  1908  003768  0E00               	movlw	0
  1909  00376A  6E14               	movwf	___flmul@b^0,c
  1910  00376C  0E00               	movlw	0
  1911  00376E  6E15               	movwf	(___flmul@b+1)^0,c
  1912  003770  0E00               	movlw	0
  1913  003772  6E16               	movwf	(___flmul@b+2)^0,c
  1914  003774  0E00               	movlw	0
  1915  003776  6E17               	movwf	(___flmul@b+3)^0,c
  1916  003778                     l1646:
  1917  003778  501B               	movf	(___flmul@a+3)^0,w,c
  1918  00377A  0B80               	andlw	128
  1919  00377C  1A20               	xorwf	___flmul@sign^0,f,c
  1920  00377E  501B               	movf	(___flmul@a+3)^0,w,c
  1921  003780  241B               	addwf	(___flmul@a+3)^0,w,c
  1922  003782  6E25               	movwf	___flmul@aexp^0,c
  1923  003784  AE1A               	btfss	(___flmul@a+2)^0,7,c
  1924  003786  EFC7  F01B         	goto	u1331
  1925  00378A  EFC9  F01B         	goto	u1330
  1926  00378E                     u1331:
  1927  00378E  EFCA  F01B         	goto	l1654
  1928  003792                     u1330:
  1929  003792  8025               	bsf	___flmul@aexp^0,0,c
  1930  003794                     l1654:
  1931  003794  5025               	movf	___flmul@aexp^0,w,c
  1932  003796  B4D8               	btfsc	status,2,c
  1933  003798  EFD0  F01B         	goto	u1341
  1934  00379C  EFD2  F01B         	goto	u1340
  1935  0037A0                     u1341:
  1936  0037A0  EFE5  F01B         	goto	l1662
  1937  0037A4                     u1340:
  1938  0037A4  2825               	incf	___flmul@aexp^0,w,c
  1939  0037A6  A4D8               	btfss	status,2,c
  1940  0037A8  EFD8  F01B         	goto	u1351
  1941  0037AC  EFDA  F01B         	goto	u1350
  1942  0037B0                     u1351:
  1943  0037B0  EFE2  F01B         	goto	l1660
  1944  0037B4                     u1350:
  1945  0037B4  0E00               	movlw	0
  1946  0037B6  6E18               	movwf	___flmul@a^0,c
  1947  0037B8  0E00               	movlw	0
  1948  0037BA  6E19               	movwf	(___flmul@a+1)^0,c
  1949  0037BC  0E00               	movlw	0
  1950  0037BE  6E1A               	movwf	(___flmul@a+2)^0,c
  1951  0037C0  0E00               	movlw	0
  1952  0037C2  6E1B               	movwf	(___flmul@a+3)^0,c
  1953  0037C4                     l1660:
  1954  0037C4  8E1A               	bsf	(___flmul@a+2)^0,7,c
  1955  0037C6  EFED  F01B         	goto	l795
  1956  0037CA                     l1662:
  1957  0037CA  0E00               	movlw	0
  1958  0037CC  6E18               	movwf	___flmul@a^0,c
  1959  0037CE  0E00               	movlw	0
  1960  0037D0  6E19               	movwf	(___flmul@a+1)^0,c
  1961  0037D2  0E00               	movlw	0
  1962  0037D4  6E1A               	movwf	(___flmul@a+2)^0,c
  1963  0037D6  0E00               	movlw	0
  1964  0037D8  6E1B               	movwf	(___flmul@a+3)^0,c
  1965  0037DA                     l795:
  1966  0037DA  5025               	movf	___flmul@aexp^0,w,c
  1967  0037DC  B4D8               	btfsc	status,2,c
  1968  0037DE  EFF3  F01B         	goto	u1361
  1969  0037E2  EFF5  F01B         	goto	u1360
  1970  0037E6                     u1361:
  1971  0037E6  EFFD  F01B         	goto	l1666
  1972  0037EA                     u1360:
  1973  0037EA  5026               	movf	___flmul@bexp^0,w,c
  1974  0037EC  A4D8               	btfss	status,2,c
  1975  0037EE  EFFB  F01B         	goto	u1371
  1976  0037F2  EFFD  F01B         	goto	u1370
  1977  0037F6                     u1371:
  1978  0037F6  EF07  F01C         	goto	l1670
  1979  0037FA                     u1370:
  1980  0037FA                     l1666:
  1981  0037FA  0E00               	movlw	0
  1982  0037FC  6E14               	movwf	?___flmul^0,c
  1983  0037FE  0E00               	movlw	0
  1984  003800  6E15               	movwf	(?___flmul+1)^0,c
  1985  003802  0E00               	movlw	0
  1986  003804  6E16               	movwf	(?___flmul+2)^0,c
  1987  003806  0E00               	movlw	0
  1988  003808  6E17               	movwf	(?___flmul+3)^0,c
  1989  00380A  EF9F  F01D         	goto	l799
  1990  00380E                     l1670:
  1991  00380E  501A               	movf	(___flmul@a+2)^0,w,c
  1992  003810  0214               	mulwf	___flmul@b^0,c
  1993  003812  CFF3 F02B          	movff	prodl,___flmul@temp
  1994  003816  CFF4 F02C          	movff	prodh,___flmul@temp+1
  1995  00381A  502B               	movf	___flmul@temp^0,w,c
  1996  00381C  6E21               	movwf	___flmul@grs^0,c
  1997  00381E  6A22               	clrf	(___flmul@grs+1)^0,c
  1998  003820  6A23               	clrf	(___flmul@grs+2)^0,c
  1999  003822  6A24               	clrf	(___flmul@grs+3)^0,c
  2000  003824  502C               	movf	(___flmul@temp+1)^0,w,c
  2001  003826  6E27               	movwf	___flmul@prod^0,c
  2002  003828  6A28               	clrf	(___flmul@prod+1)^0,c
  2003  00382A  6A29               	clrf	(___flmul@prod+2)^0,c
  2004  00382C  6A2A               	clrf	(___flmul@prod+3)^0,c
  2005  00382E  5019               	movf	(___flmul@a+1)^0,w,c
  2006  003830  0215               	mulwf	(___flmul@b+1)^0,c
  2007  003832  CFF3 F02B          	movff	prodl,___flmul@temp
  2008  003836  CFF4 F02C          	movff	prodh,___flmul@temp+1
  2009  00383A  502B               	movf	___flmul@temp^0,w,c
  2010  00383C  2621               	addwf	___flmul@grs^0,f,c
  2011  00383E  0E00               	movlw	0
  2012  003840  2222               	addwfc	(___flmul@grs+1)^0,f,c
  2013  003842  2223               	addwfc	(___flmul@grs+2)^0,f,c
  2014  003844  2224               	addwfc	(___flmul@grs+3)^0,f,c
  2015  003846  502C               	movf	(___flmul@temp+1)^0,w,c
  2016  003848  2627               	addwf	___flmul@prod^0,f,c
  2017  00384A  0E00               	movlw	0
  2018  00384C  2228               	addwfc	(___flmul@prod+1)^0,f,c
  2019  00384E  2229               	addwfc	(___flmul@prod+2)^0,f,c
  2020  003850  222A               	addwfc	(___flmul@prod+3)^0,f,c
  2021  003852  5018               	movf	___flmul@a^0,w,c
  2022  003854  0216               	mulwf	(___flmul@b+2)^0,c
  2023  003856  CFF3 F02B          	movff	prodl,___flmul@temp
  2024  00385A  CFF4 F02C          	movff	prodh,___flmul@temp+1
  2025  00385E  502B               	movf	___flmul@temp^0,w,c
  2026  003860  2621               	addwf	___flmul@grs^0,f,c
  2027  003862  0E00               	movlw	0
  2028  003864  2222               	addwfc	(___flmul@grs+1)^0,f,c
  2029  003866  2223               	addwfc	(___flmul@grs+2)^0,f,c
  2030  003868  2224               	addwfc	(___flmul@grs+3)^0,f,c
  2031  00386A  502C               	movf	(___flmul@temp+1)^0,w,c
  2032  00386C  2627               	addwf	___flmul@prod^0,f,c
  2033  00386E  0E00               	movlw	0
  2034  003870  2228               	addwfc	(___flmul@prod+1)^0,f,c
  2035  003872  2229               	addwfc	(___flmul@prod+2)^0,f,c
  2036  003874  222A               	addwfc	(___flmul@prod+3)^0,f,c
  2037  003876  C023  F024         	movff	___flmul@grs+2,___flmul@grs+3
  2038  00387A  C022  F023         	movff	___flmul@grs+1,___flmul@grs+2
  2039  00387E  C021  F022         	movff	___flmul@grs,___flmul@grs+1
  2040  003882  6A21               	clrf	___flmul@grs^0,c
  2041  003884  5018               	movf	___flmul@a^0,w,c
  2042  003886  0215               	mulwf	(___flmul@b+1)^0,c
  2043  003888  CFF3 F02B          	movff	prodl,___flmul@temp
  2044  00388C  CFF4 F02C          	movff	prodh,___flmul@temp+1
  2045  003890  502B               	movf	___flmul@temp^0,w,c
  2046  003892  2621               	addwf	___flmul@grs^0,f,c
  2047  003894  502C               	movf	(___flmul@temp+1)^0,w,c
  2048  003896  2222               	addwfc	(___flmul@grs+1)^0,f,c
  2049  003898  0E00               	movlw	0
  2050  00389A  2223               	addwfc	(___flmul@grs+2)^0,f,c
  2051  00389C  0E00               	movlw	0
  2052  00389E  2224               	addwfc	(___flmul@grs+3)^0,f,c
  2053  0038A0  5019               	movf	(___flmul@a+1)^0,w,c
  2054  0038A2  0214               	mulwf	___flmul@b^0,c
  2055  0038A4  CFF3 F02B          	movff	prodl,___flmul@temp
  2056  0038A8  CFF4 F02C          	movff	prodh,___flmul@temp+1
  2057  0038AC  502B               	movf	___flmul@temp^0,w,c
  2058  0038AE  2621               	addwf	___flmul@grs^0,f,c
  2059  0038B0  502C               	movf	(___flmul@temp+1)^0,w,c
  2060  0038B2  2222               	addwfc	(___flmul@grs+1)^0,f,c
  2061  0038B4  0E00               	movlw	0
  2062  0038B6  2223               	addwfc	(___flmul@grs+2)^0,f,c
  2063  0038B8  0E00               	movlw	0
  2064  0038BA  2224               	addwfc	(___flmul@grs+3)^0,f,c
  2065  0038BC  C023  F024         	movff	___flmul@grs+2,___flmul@grs+3
  2066  0038C0  C022  F023         	movff	___flmul@grs+1,___flmul@grs+2
  2067  0038C4  C021  F022         	movff	___flmul@grs,___flmul@grs+1
  2068  0038C8  6A21               	clrf	___flmul@grs^0,c
  2069  0038CA  5018               	movf	___flmul@a^0,w,c
  2070  0038CC  0214               	mulwf	___flmul@b^0,c
  2071  0038CE  CFF3 F02B          	movff	prodl,___flmul@temp
  2072  0038D2  CFF4 F02C          	movff	prodh,___flmul@temp+1
  2073  0038D6  502B               	movf	___flmul@temp^0,w,c
  2074  0038D8  2621               	addwf	___flmul@grs^0,f,c
  2075  0038DA  502C               	movf	(___flmul@temp+1)^0,w,c
  2076  0038DC  2222               	addwfc	(___flmul@grs+1)^0,f,c
  2077  0038DE  0E00               	movlw	0
  2078  0038E0  2223               	addwfc	(___flmul@grs+2)^0,f,c
  2079  0038E2  0E00               	movlw	0
  2080  0038E4  2224               	addwfc	(___flmul@grs+3)^0,f,c
  2081  0038E6  501A               	movf	(___flmul@a+2)^0,w,c
  2082  0038E8  0215               	mulwf	(___flmul@b+1)^0,c
  2083  0038EA  CFF3 F02B          	movff	prodl,___flmul@temp
  2084  0038EE  CFF4 F02C          	movff	prodh,___flmul@temp+1
  2085  0038F2  502B               	movf	___flmul@temp^0,w,c
  2086  0038F4  2627               	addwf	___flmul@prod^0,f,c
  2087  0038F6  502C               	movf	(___flmul@temp+1)^0,w,c
  2088  0038F8  2228               	addwfc	(___flmul@prod+1)^0,f,c
  2089  0038FA  0E00               	movlw	0
  2090  0038FC  2229               	addwfc	(___flmul@prod+2)^0,f,c
  2091  0038FE  0E00               	movlw	0
  2092  003900  222A               	addwfc	(___flmul@prod+3)^0,f,c
  2093  003902  5019               	movf	(___flmul@a+1)^0,w,c
  2094  003904  0216               	mulwf	(___flmul@b+2)^0,c
  2095  003906  CFF3 F02B          	movff	prodl,___flmul@temp
  2096  00390A  CFF4 F02C          	movff	prodh,___flmul@temp+1
  2097  00390E  502B               	movf	___flmul@temp^0,w,c
  2098  003910  2627               	addwf	___flmul@prod^0,f,c
  2099  003912  502C               	movf	(___flmul@temp+1)^0,w,c
  2100  003914  2228               	addwfc	(___flmul@prod+1)^0,f,c
  2101  003916  0E00               	movlw	0
  2102  003918  2229               	addwfc	(___flmul@prod+2)^0,f,c
  2103  00391A  0E00               	movlw	0
  2104  00391C  222A               	addwfc	(___flmul@prod+3)^0,f,c
  2105  00391E  501A               	movf	(___flmul@a+2)^0,w,c
  2106  003920  0216               	mulwf	(___flmul@b+2)^0,c
  2107  003922  CFF3 F02B          	movff	prodl,___flmul@temp
  2108  003926  CFF4 F02C          	movff	prodh,___flmul@temp+1
  2109  00392A  502B               	movf	___flmul@temp^0,w,c
  2110  00392C  6E1C               	movwf	??___flmul^0,c
  2111  00392E  502C               	movf	(___flmul@temp+1)^0,w,c
  2112  003930  6E1D               	movwf	(??___flmul+1)^0,c
  2113  003932  6A1E               	clrf	(??___flmul+2)^0,c
  2114  003934  6A1F               	clrf	(??___flmul+3)^0,c
  2115  003936  C01E  F01F         	movff	??___flmul+2,??___flmul+3
  2116  00393A  C01D  F01E         	movff	??___flmul+1,??___flmul+2
  2117  00393E  C01C  F01D         	movff	??___flmul,??___flmul+1
  2118  003942  6A1C               	clrf	??___flmul^0,c
  2119  003944  501C               	movf	??___flmul^0,w,c
  2120  003946  2627               	addwf	___flmul@prod^0,f,c
  2121  003948  501D               	movf	(??___flmul+1)^0,w,c
  2122  00394A  2228               	addwfc	(___flmul@prod+1)^0,f,c
  2123  00394C  501E               	movf	(??___flmul+2)^0,w,c
  2124  00394E  2229               	addwfc	(___flmul@prod+2)^0,f,c
  2125  003950  501F               	movf	(??___flmul+3)^0,w,c
  2126  003952  222A               	addwfc	(___flmul@prod+3)^0,f,c
  2127  003954  C021  F01C         	movff	___flmul@grs,??___flmul
  2128  003958  C022  F01D         	movff	___flmul@grs+1,??___flmul+1
  2129  00395C  C023  F01E         	movff	___flmul@grs+2,??___flmul+2
  2130  003960  C024  F01F         	movff	___flmul@grs+3,??___flmul+3
  2131  003964  0E19               	movlw	25
  2132  003966  EFBA  F01C         	goto	u1380
  2133  00396A                     u1385:
  2134  00396A  90D8               	bcf	status,0,c
  2135  00396C  321F               	rrcf	(??___flmul+3)^0,f,c
  2136  00396E  321E               	rrcf	(??___flmul+2)^0,f,c
  2137  003970  321D               	rrcf	(??___flmul+1)^0,f,c
  2138  003972  321C               	rrcf	??___flmul^0,f,c
  2139  003974                     u1380:
  2140  003974  2EE8               	decfsz	wreg,f,c
  2141  003976  EFB5  F01C         	goto	u1385
  2142  00397A  501C               	movf	??___flmul^0,w,c
  2143  00397C  2627               	addwf	___flmul@prod^0,f,c
  2144  00397E  501D               	movf	(??___flmul+1)^0,w,c
  2145  003980  2228               	addwfc	(___flmul@prod+1)^0,f,c
  2146  003982  501E               	movf	(??___flmul+2)^0,w,c
  2147  003984  2229               	addwfc	(___flmul@prod+2)^0,f,c
  2148  003986  501F               	movf	(??___flmul+3)^0,w,c
  2149  003988  222A               	addwfc	(___flmul@prod+3)^0,f,c
  2150  00398A  C023  F024         	movff	___flmul@grs+2,___flmul@grs+3
  2151  00398E  C022  F023         	movff	___flmul@grs+1,___flmul@grs+2
  2152  003992  C021  F022         	movff	___flmul@grs,___flmul@grs+1
  2153  003996  6A21               	clrf	___flmul@grs^0,c
  2154  003998  5025               	movf	___flmul@aexp^0,w,c
  2155  00399A  C026  F01C         	movff	___flmul@bexp,??___flmul
  2156  00399E  6A1D               	clrf	(??___flmul+1)^0,c
  2157  0039A0  261C               	addwf	??___flmul^0,f,c
  2158  0039A2  0E00               	movlw	0
  2159  0039A4  221D               	addwfc	(??___flmul+1)^0,f,c
  2160  0039A6  0E82               	movlw	130
  2161  0039A8  241C               	addwf	??___flmul^0,w,c
  2162  0039AA  6E2B               	movwf	___flmul@temp^0,c
  2163  0039AC  0EFF               	movlw	255
  2164  0039AE  201D               	addwfc	(??___flmul+1)^0,w,c
  2165  0039B0  6E2C               	movwf	(___flmul@temp+1)^0,c
  2166  0039B2  EFF0  F01C         	goto	l1718
  2167  0039B6                     l1712:
  2168  0039B6  90D8               	bcf	status,0,c
  2169  0039B8  3627               	rlcf	___flmul@prod^0,f,c
  2170  0039BA  3628               	rlcf	(___flmul@prod+1)^0,f,c
  2171  0039BC  3629               	rlcf	(___flmul@prod+2)^0,f,c
  2172  0039BE  362A               	rlcf	(___flmul@prod+3)^0,f,c
  2173  0039C0  AE24               	btfss	(___flmul@grs+3)^0,7,c
  2174  0039C2  EFE5  F01C         	goto	u1391
  2175  0039C6  EFE7  F01C         	goto	u1390
  2176  0039CA                     u1391:
  2177  0039CA  EFE8  F01C         	goto	l802
  2178  0039CE                     u1390:
  2179  0039CE  8027               	bsf	___flmul@prod^0,0,c
  2180  0039D0                     l802:
  2181  0039D0  90D8               	bcf	status,0,c
  2182  0039D2  3621               	rlcf	___flmul@grs^0,f,c
  2183  0039D4  3622               	rlcf	(___flmul@grs+1)^0,f,c
  2184  0039D6  3623               	rlcf	(___flmul@grs+2)^0,f,c
  2185  0039D8  3624               	rlcf	(___flmul@grs+3)^0,f,c
  2186  0039DA  062B               	decf	___flmul@temp^0,f,c
  2187  0039DC  A0D8               	btfss	status,0,c
  2188  0039DE  062C               	decf	(___flmul@temp+1)^0,f,c
  2189  0039E0                     l1718:
  2190  0039E0  AE29               	btfss	(___flmul@prod+2)^0,7,c
  2191  0039E2  EFF5  F01C         	goto	u1401
  2192  0039E6  EFF7  F01C         	goto	u1400
  2193  0039EA                     u1401:
  2194  0039EA  EFDB  F01C         	goto	l1712
  2195  0039EE                     u1400:
  2196  0039EE  0E00               	movlw	0
  2197  0039F0  6E25               	movwf	___flmul@aexp^0,c
  2198  0039F2  AE24               	btfss	(___flmul@grs+3)^0,7,c
  2199  0039F4  EFFE  F01C         	goto	u1411
  2200  0039F8  EF00  F01D         	goto	u1410
  2201  0039FC                     u1411:
  2202  0039FC  EF24  F01D         	goto	l804
  2203  003A00                     u1410:
  2204  003A00  0EFF               	movlw	255
  2205  003A02  1421               	andwf	___flmul@grs^0,w,c
  2206  003A04  6E1C               	movwf	??___flmul^0,c
  2207  003A06  0EFF               	movlw	255
  2208  003A08  1422               	andwf	(___flmul@grs+1)^0,w,c
  2209  003A0A  6E1D               	movwf	(??___flmul+1)^0,c
  2210  003A0C  0EFF               	movlw	255
  2211  003A0E  1423               	andwf	(___flmul@grs+2)^0,w,c
  2212  003A10  6E1E               	movwf	(??___flmul+2)^0,c
  2213  003A12  0E7F               	movlw	127
  2214  003A14  1424               	andwf	(___flmul@grs+3)^0,w,c
  2215  003A16  6E1F               	movwf	(??___flmul+3)^0,c
  2216  003A18  501C               	movf	??___flmul^0,w,c
  2217  003A1A  101D               	iorwf	(??___flmul+1)^0,w,c
  2218  003A1C  101E               	iorwf	(??___flmul+2)^0,w,c
  2219  003A1E  101F               	iorwf	(??___flmul+3)^0,w,c
  2220  003A20  B4D8               	btfsc	status,2,c
  2221  003A22  EF15  F01D         	goto	u1421
  2222  003A26  EF17  F01D         	goto	u1420
  2223  003A2A                     u1421:
  2224  003A2A  EF1B  F01D         	goto	l805
  2225  003A2E                     u1420:
  2226  003A2E                     l1726:
  2227  003A2E  0E01               	movlw	1
  2228  003A30  6E25               	movwf	___flmul@aexp^0,c
  2229  003A32  EF24  F01D         	goto	l804
  2230  003A36                     l805:
  2231  003A36  A027               	btfss	___flmul@prod^0,0,c
  2232  003A38  EF20  F01D         	goto	u1431
  2233  003A3C  EF22  F01D         	goto	u1430
  2234  003A40                     u1431:
  2235  003A40  EF24  F01D         	goto	l804
  2236  003A44                     u1430:
  2237  003A44  EF17  F01D         	goto	l1726
  2238  003A48                     l804:
  2239  003A48  5025               	movf	___flmul@aexp^0,w,c
  2240  003A4A  B4D8               	btfsc	status,2,c
  2241  003A4C  EF2A  F01D         	goto	u1441
  2242  003A50  EF2C  F01D         	goto	u1440
  2243  003A54                     u1441:
  2244  003A54  EF50  F01D         	goto	l1738
  2245  003A58                     u1440:
  2246  003A58  0E01               	movlw	1
  2247  003A5A  2627               	addwf	___flmul@prod^0,f,c
  2248  003A5C  0E00               	movlw	0
  2249  003A5E  2228               	addwfc	(___flmul@prod+1)^0,f,c
  2250  003A60  2229               	addwfc	(___flmul@prod+2)^0,f,c
  2251  003A62  222A               	addwfc	(___flmul@prod+3)^0,f,c
  2252  003A64  A02A               	btfss	(___flmul@prod+3)^0,0,c
  2253  003A66  EF37  F01D         	goto	u1451
  2254  003A6A  EF39  F01D         	goto	u1450
  2255  003A6E                     u1451:
  2256  003A6E  EF50  F01D         	goto	l1738
  2257  003A72                     u1450:
  2258  003A72  C027  F01C         	movff	___flmul@prod,??___flmul
  2259  003A76  C028  F01D         	movff	___flmul@prod+1,??___flmul+1
  2260  003A7A  C029  F01E         	movff	___flmul@prod+2,??___flmul+2
  2261  003A7E  C02A  F01F         	movff	___flmul@prod+3,??___flmul+3
  2262  003A82  341F               	rlcf	(??___flmul+3)^0,w,c
  2263  003A84  321F               	rrcf	(??___flmul+3)^0,f,c
  2264  003A86  321E               	rrcf	(??___flmul+2)^0,f,c
  2265  003A88  321D               	rrcf	(??___flmul+1)^0,f,c
  2266  003A8A  321C               	rrcf	??___flmul^0,f,c
  2267  003A8C  C01C  F027         	movff	??___flmul,___flmul@prod
  2268  003A90  C01D  F028         	movff	??___flmul+1,___flmul@prod+1
  2269  003A94  C01E  F029         	movff	??___flmul+2,___flmul@prod+2
  2270  003A98  C01F  F02A         	movff	??___flmul+3,___flmul@prod+3
  2271  003A9C  4A2B               	infsnz	___flmul@temp^0,f,c
  2272  003A9E  2A2C               	incf	(___flmul@temp+1)^0,f,c
  2273  003AA0                     l1738:
  2274  003AA0  BE2C               	btfsc	(___flmul@temp+1)^0,7,c
  2275  003AA2  EF5B  F01D         	goto	u1461
  2276  003AA6  502C               	movf	(___flmul@temp+1)^0,w,c
  2277  003AA8  E108               	bnz	u1460
  2278  003AAA  282B               	incf	___flmul@temp^0,w,c
  2279  003AAC  A0D8               	btfss	status,0,c
  2280  003AAE  EF5B  F01D         	goto	u1461
  2281  003AB2  EF5D  F01D         	goto	u1460
  2282  003AB6                     u1461:
  2283  003AB6  EF67  F01D         	goto	l1742
  2284  003ABA                     u1460:
  2285  003ABA  0E00               	movlw	0
  2286  003ABC  6E27               	movwf	___flmul@prod^0,c
  2287  003ABE  0E00               	movlw	0
  2288  003AC0  6E28               	movwf	(___flmul@prod+1)^0,c
  2289  003AC2  0E80               	movlw	128
  2290  003AC4  6E29               	movwf	(___flmul@prod+2)^0,c
  2291  003AC6  0E7F               	movlw	127
  2292  003AC8  6E2A               	movwf	(___flmul@prod+3)^0,c
  2293  003ACA  EF95  F01D         	goto	l1754
  2294  003ACE                     l1742:
  2295  003ACE  BE2C               	btfsc	(___flmul@temp+1)^0,7,c
  2296  003AD0  EF74  F01D         	goto	u1470
  2297  003AD4  502C               	movf	(___flmul@temp+1)^0,w,c
  2298  003AD6  E106               	bnz	u1471
  2299  003AD8  042B               	decf	___flmul@temp^0,w,c
  2300  003ADA  B0D8               	btfsc	status,0,c
  2301  003ADC  EF72  F01D         	goto	u1471
  2302  003AE0  EF74  F01D         	goto	u1470
  2303  003AE4                     u1471:
  2304  003AE4  EF80  F01D         	goto	l812
  2305  003AE8                     u1470:
  2306  003AE8  0E00               	movlw	0
  2307  003AEA  6E27               	movwf	___flmul@prod^0,c
  2308  003AEC  0E00               	movlw	0
  2309  003AEE  6E28               	movwf	(___flmul@prod+1)^0,c
  2310  003AF0  0E00               	movlw	0
  2311  003AF2  6E29               	movwf	(___flmul@prod+2)^0,c
  2312  003AF4  0E00               	movlw	0
  2313  003AF6  6E2A               	movwf	(___flmul@prod+3)^0,c
  2314  003AF8  0E00               	movlw	0
  2315  003AFA  6E20               	movwf	___flmul@sign^0,c
  2316  003AFC  EF95  F01D         	goto	l1754
  2317  003B00                     l812:
  2318  003B00  C02B  F026         	movff	___flmul@temp,___flmul@bexp
  2319  003B04  0EFF               	movlw	255
  2320  003B06  1627               	andwf	___flmul@prod^0,f,c
  2321  003B08  0EFF               	movlw	255
  2322  003B0A  1628               	andwf	(___flmul@prod+1)^0,f,c
  2323  003B0C  0E7F               	movlw	127
  2324  003B0E  1629               	andwf	(___flmul@prod+2)^0,f,c
  2325  003B10  0E00               	movlw	0
  2326  003B12  162A               	andwf	(___flmul@prod+3)^0,f,c
  2327  003B14  A026               	btfss	___flmul@bexp^0,0,c
  2328  003B16  EF8F  F01D         	goto	u1481
  2329  003B1A  EF91  F01D         	goto	u1480
  2330  003B1E                     u1481:
  2331  003B1E  EF92  F01D         	goto	l1752
  2332  003B22                     u1480:
  2333  003B22  8E29               	bsf	(___flmul@prod+2)^0,7,c
  2334  003B24                     l1752:
  2335  003B24  90D8               	bcf	status,0,c
  2336  003B26  3026               	rrcf	___flmul@bexp^0,w,c
  2337  003B28  6E2A               	movwf	(___flmul@prod+3)^0,c
  2338  003B2A                     l1754:
  2339  003B2A  5020               	movf	___flmul@sign^0,w,c
  2340  003B2C  122A               	iorwf	(___flmul@prod+3)^0,f,c
  2341  003B2E  C027  F014         	movff	___flmul@prod,?___flmul
  2342  003B32  C028  F015         	movff	___flmul@prod+1,?___flmul+1
  2343  003B36  C029  F016         	movff	___flmul@prod+2,?___flmul+2
  2344  003B3A  C02A  F017         	movff	___flmul@prod+3,?___flmul+3
  2345  003B3E                     l799:
  2346  003B3E  0012               	return		;funcret
  2347  003B40                     __end_of___flmul:
  2348                           	callstack 0
  2349                           
  2350 ;; *************** function ___flge *****************
  2351 ;; Defined at:
  2352 ;;		line 4 in file "C:\Program Files\Microchip\xc8\v2.32\pic\sources\c99\common\flge.c"
  2353 ;; Parameters:    Size  Location     Type
  2354 ;;  ff1             4   19[COMRAM] unsigned char 
  2355 ;;  ff2             4   23[COMRAM] unsigned char 
  2356 ;; Auto vars:     Size  Location     Type
  2357 ;;		None
  2358 ;; Return value:  Size  Location     Type
  2359 ;;		None               void
  2360 ;; Registers used:
  2361 ;;		wreg, status,2, status,0
  2362 ;; Tracked objects:
  2363 ;;		On entry : 0/0
  2364 ;;		On exit  : 0/0
  2365 ;;		Unchanged: 0/0
  2366 ;; Data sizes:     COMRAM   BANK0   BANK1   BANK2
  2367 ;;      Params:         8       0       0       0
  2368 ;;      Locals:         0       0       0       0
  2369 ;;      Temps:          4       0       0       0
  2370 ;;      Totals:        12       0       0       0
  2371 ;;Total ram usage:       12 bytes
  2372 ;; Hardware stack levels used: 1
  2373 ;; This function calls:
  2374 ;;		Nothing
  2375 ;; This function is called by:
  2376 ;;		_main
  2377 ;; This function uses a non-reentrant model
  2378 ;;
  2379                           
  2380                           	psect	text6
  2381  002FAA                     __ptext6:
  2382                           	callstack 0
  2383  002FAA                     ___flge:
  2384                           	callstack 30
  2385  002FAA  0E00               	movlw	0
  2386  002FAC  1414               	andwf	___flge@ff1^0,w,c
  2387  002FAE  6E1C               	movwf	??___flge^0,c
  2388  002FB0  0E00               	movlw	0
  2389  002FB2  1415               	andwf	(___flge@ff1+1)^0,w,c
  2390  002FB4  6E1D               	movwf	(??___flge+1)^0,c
  2391  002FB6  0E80               	movlw	128
  2392  002FB8  1416               	andwf	(___flge@ff1+2)^0,w,c
  2393  002FBA  6E1E               	movwf	(??___flge+2)^0,c
  2394  002FBC  0E7F               	movlw	127
  2395  002FBE  1417               	andwf	(___flge@ff1+3)^0,w,c
  2396  002FC0  6E1F               	movwf	(??___flge+3)^0,c
  2397  002FC2  501C               	movf	??___flge^0,w,c
  2398  002FC4  101D               	iorwf	(??___flge+1)^0,w,c
  2399  002FC6  101E               	iorwf	(??___flge+2)^0,w,c
  2400  002FC8  101F               	iorwf	(??___flge+3)^0,w,c
  2401  002FCA  A4D8               	btfss	status,2,c
  2402  002FCC  EFEA  F017         	goto	u1491
  2403  002FD0  EFEC  F017         	goto	u1490
  2404  002FD4                     u1491:
  2405  002FD4  EFF4  F017         	goto	l1770
  2406  002FD8                     u1490:
  2407  002FD8  0E00               	movlw	0
  2408  002FDA  6E14               	movwf	___flge@ff1^0,c
  2409  002FDC  0E00               	movlw	0
  2410  002FDE  6E15               	movwf	(___flge@ff1+1)^0,c
  2411  002FE0  0E00               	movlw	0
  2412  002FE2  6E16               	movwf	(___flge@ff1+2)^0,c
  2413  002FE4  0E00               	movlw	0
  2414  002FE6  6E17               	movwf	(___flge@ff1+3)^0,c
  2415  002FE8                     l1770:
  2416  002FE8  0E00               	movlw	0
  2417  002FEA  1418               	andwf	___flge@ff2^0,w,c
  2418  002FEC  6E1C               	movwf	??___flge^0,c
  2419  002FEE  0E00               	movlw	0
  2420  002FF0  1419               	andwf	(___flge@ff2+1)^0,w,c
  2421  002FF2  6E1D               	movwf	(??___flge+1)^0,c
  2422  002FF4  0E80               	movlw	128
  2423  002FF6  141A               	andwf	(___flge@ff2+2)^0,w,c
  2424  002FF8  6E1E               	movwf	(??___flge+2)^0,c
  2425  002FFA  0E7F               	movlw	127
  2426  002FFC  141B               	andwf	(___flge@ff2+3)^0,w,c
  2427  002FFE  6E1F               	movwf	(??___flge+3)^0,c
  2428  003000  501C               	movf	??___flge^0,w,c
  2429  003002  101D               	iorwf	(??___flge+1)^0,w,c
  2430  003004  101E               	iorwf	(??___flge+2)^0,w,c
  2431  003006  101F               	iorwf	(??___flge+3)^0,w,c
  2432  003008  A4D8               	btfss	status,2,c
  2433  00300A  EF09  F018         	goto	u1501
  2434  00300E  EF0B  F018         	goto	u1500
  2435  003012                     u1501:
  2436  003012  EF13  F018         	goto	l1774
  2437  003016                     u1500:
  2438  003016  0E00               	movlw	0
  2439  003018  6E18               	movwf	___flge@ff2^0,c
  2440  00301A  0E00               	movlw	0
  2441  00301C  6E19               	movwf	(___flge@ff2+1)^0,c
  2442  00301E  0E00               	movlw	0
  2443  003020  6E1A               	movwf	(___flge@ff2+2)^0,c
  2444  003022  0E00               	movlw	0
  2445  003024  6E1B               	movwf	(___flge@ff2+3)^0,c
  2446  003026                     l1774:
  2447  003026  AE17               	btfss	(___flge@ff1+3)^0,7,c
  2448  003028  EF18  F018         	goto	u1511
  2449  00302C  EF1A  F018         	goto	u1510
  2450  003030                     u1511:
  2451  003030  EF23  F018         	goto	l1778
  2452  003034                     u1510:
  2453  003034  6C14               	negf	___flge@ff1^0,c
  2454  003036  1E15               	comf	(___flge@ff1+1)^0,f,c
  2455  003038  B0D8               	btfsc	status,0,c
  2456  00303A  2A15               	incf	(___flge@ff1+1)^0,f,c
  2457  00303C  1E16               	comf	(___flge@ff1+2)^0,f,c
  2458  00303E  B0D8               	btfsc	status,0,c
  2459  003040  2A16               	incf	(___flge@ff1+2)^0,f,c
  2460  003042  0E80               	movlw	128
  2461  003044  5617               	subfwb	(___flge@ff1+3)^0,f,c
  2462  003046                     l1778:
  2463  003046  AE1B               	btfss	(___flge@ff2+3)^0,7,c
  2464  003048  EF28  F018         	goto	u1521
  2465  00304C  EF2A  F018         	goto	u1520
  2466  003050                     u1521:
  2467  003050  EF33  F018         	goto	l446
  2468  003054                     u1520:
  2469  003054  6C18               	negf	___flge@ff2^0,c
  2470  003056  1E19               	comf	(___flge@ff2+1)^0,f,c
  2471  003058  B0D8               	btfsc	status,0,c
  2472  00305A  2A19               	incf	(___flge@ff2+1)^0,f,c
  2473  00305C  1E1A               	comf	(___flge@ff2+2)^0,f,c
  2474  00305E  B0D8               	btfsc	status,0,c
  2475  003060  2A1A               	incf	(___flge@ff2+2)^0,f,c
  2476  003062  0E80               	movlw	128
  2477  003064  561B               	subfwb	(___flge@ff2+3)^0,f,c
  2478  003066                     l446:
  2479  003066  0E00               	movlw	0
  2480  003068  1A14               	xorwf	___flge@ff1^0,f,c
  2481  00306A  0E00               	movlw	0
  2482  00306C  1A15               	xorwf	(___flge@ff1+1)^0,f,c
  2483  00306E  0E00               	movlw	0
  2484  003070  1A16               	xorwf	(___flge@ff1+2)^0,f,c
  2485  003072  0E80               	movlw	128
  2486  003074  1A17               	xorwf	(___flge@ff1+3)^0,f,c
  2487  003076  0E00               	movlw	0
  2488  003078  1A18               	xorwf	___flge@ff2^0,f,c
  2489  00307A  0E00               	movlw	0
  2490  00307C  1A19               	xorwf	(___flge@ff2+1)^0,f,c
  2491  00307E  0E00               	movlw	0
  2492  003080  1A1A               	xorwf	(___flge@ff2+2)^0,f,c
  2493  003082  0E80               	movlw	128
  2494  003084  1A1B               	xorwf	(___flge@ff2+3)^0,f,c
  2495  003086  5018               	movf	___flge@ff2^0,w,c
  2496  003088  5C14               	subwf	___flge@ff1^0,w,c
  2497  00308A  5019               	movf	(___flge@ff2+1)^0,w,c
  2498  00308C  5815               	subwfb	(___flge@ff1+1)^0,w,c
  2499  00308E  501A               	movf	(___flge@ff2+2)^0,w,c
  2500  003090  5816               	subwfb	(___flge@ff1+2)^0,w,c
  2501  003092  501B               	movf	(___flge@ff2+3)^0,w,c
  2502  003094  5817               	subwfb	(___flge@ff1+3)^0,w,c
  2503  003096  B0D8               	btfsc	status,0,c
  2504  003098  EF50  F018         	goto	u1531
  2505  00309C  EF52  F018         	goto	u1530
  2506  0030A0                     u1531:
  2507  0030A0  EF55  F018         	goto	l1784
  2508  0030A4                     u1530:
  2509  0030A4  90D8               	bcf	status,0,c
  2510  0030A6  EF56  F018         	goto	l451
  2511  0030AA                     l1784:
  2512  0030AA  80D8               	bsf	status,0,c
  2513  0030AC                     l451:
  2514  0030AC  0012               	return		;funcret
  2515  0030AE                     __end_of___flge:
  2516                           	callstack 0
  2517                           
  2518 ;; *************** function _SYSTEM_Initialize *****************
  2519 ;; Defined at:
  2520 ;;		line 50 in file "mcc_generated_files/mcc.c"
  2521 ;; Parameters:    Size  Location     Type
  2522 ;;		None
  2523 ;; Auto vars:     Size  Location     Type
  2524 ;;		None
  2525 ;; Return value:  Size  Location     Type
  2526 ;;                  1    wreg      void 
  2527 ;; Registers used:
  2528 ;;		wreg, status,2, cstack
  2529 ;; Tracked objects:
  2530 ;;		On entry : 0/0
  2531 ;;		On exit  : 0/0
  2532 ;;		Unchanged: 0/0
  2533 ;; Data sizes:     COMRAM   BANK0   BANK1   BANK2
  2534 ;;      Params:         0       0       0       0
  2535 ;;      Locals:         0       0       0       0
  2536 ;;      Temps:          0       0       0       0
  2537 ;;      Totals:         0       0       0       0
  2538 ;;Total ram usage:        0 bytes
  2539 ;; Hardware stack levels used: 1
  2540 ;; Hardware stack levels required when called: 1
  2541 ;; This function calls:
  2542 ;;		_ADC_Initialize
  2543 ;;		_OSCILLATOR_Initialize
  2544 ;;		_PIN_MANAGER_Initialize
  2545 ;;		_PWM4_Initialize
  2546 ;;		_PWM5_Initialize
  2547 ;;		_TMR2_Initialize
  2548 ;; This function is called by:
  2549 ;;		_main
  2550 ;; This function uses a non-reentrant model
  2551 ;;
  2552                           
  2553                           	psect	text7
  2554  002E80                     __ptext7:
  2555                           	callstack 0
  2556  002E80                     _SYSTEM_Initialize:
  2557                           	callstack 29
  2558  002E80                     
  2559                           ;mcc_generated_files/mcc.c: 53:     PIN_MANAGER_Initialize();
  2560  002E80  EC4D  F017         	call	_PIN_MANAGER_Initialize	;wreg free
  2561                           
  2562                           ;mcc_generated_files/mcc.c: 54:     OSCILLATOR_Initialize();
  2563  002E84  EC0C  F017         	call	_OSCILLATOR_Initialize	;wreg free
  2564                           
  2565                           ;mcc_generated_files/mcc.c: 55:     PWM4_Initialize();
  2566  002E88  EC21  F017         	call	_PWM4_Initialize	;wreg free
  2567                           
  2568                           ;mcc_generated_files/mcc.c: 56:     PWM5_Initialize();
  2569  002E8C  EC2B  F017         	call	_PWM5_Initialize	;wreg free
  2570                           
  2571                           ;mcc_generated_files/mcc.c: 57:     TMR2_Initialize();
  2572  002E90  EC13  F017         	call	_TMR2_Initialize	;wreg free
  2573                           
  2574                           ;mcc_generated_files/mcc.c: 58:     ADC_Initialize();
  2575  002E94  EC35  F017         	call	_ADC_Initialize	;wreg free
  2576  002E98  0012               	return		;funcret
  2577  002E9A                     __end_of_SYSTEM_Initialize:
  2578                           	callstack 0
  2579                           
  2580 ;; *************** function _TMR2_Initialize *****************
  2581 ;; Defined at:
  2582 ;;		line 62 in file "mcc_generated_files/tmr2.c"
  2583 ;; Parameters:    Size  Location     Type
  2584 ;;		None
  2585 ;; Auto vars:     Size  Location     Type
  2586 ;;		None
  2587 ;; Return value:  Size  Location     Type
  2588 ;;                  1    wreg      void 
  2589 ;; Registers used:
  2590 ;;		wreg, status,2
  2591 ;; Tracked objects:
  2592 ;;		On entry : 0/0
  2593 ;;		On exit  : 0/0
  2594 ;;		Unchanged: 0/0
  2595 ;; Data sizes:     COMRAM   BANK0   BANK1   BANK2
  2596 ;;      Params:         0       0       0       0
  2597 ;;      Locals:         0       0       0       0
  2598 ;;      Temps:          0       0       0       0
  2599 ;;      Totals:         0       0       0       0
  2600 ;;Total ram usage:        0 bytes
  2601 ;; Hardware stack levels used: 1
  2602 ;; This function calls:
  2603 ;;		Nothing
  2604 ;; This function is called by:
  2605 ;;		_SYSTEM_Initialize
  2606 ;; This function uses a non-reentrant model
  2607 ;;
  2608                           
  2609                           	psect	text8
  2610  002E26                     __ptext8:
  2611                           	callstack 0
  2612  002E26                     _TMR2_Initialize:
  2613                           	callstack 29
  2614  002E26                     
  2615                           ;mcc_generated_files/tmr2.c: 67:     PR2 = 0xFF;
  2616  002E26  68BB               	setf	187,c	;volatile
  2617  002E28                     
  2618                           ;mcc_generated_files/tmr2.c: 70:     TMR2 = 0x00;
  2619  002E28  0E00               	movlw	0
  2620  002E2A  6EBC               	movwf	188,c	;volatile
  2621  002E2C                     
  2622                           ;mcc_generated_files/tmr2.c: 73:     PIR1bits.TMR2IF = 0;
  2623  002E2C  929E               	bcf	158,1,c	;volatile
  2624                           
  2625                           ;mcc_generated_files/tmr2.c: 76:     T2CON = 0x05;
  2626  002E2E  0E05               	movlw	5
  2627  002E30  6EBA               	movwf	186,c	;volatile
  2628  002E32  0012               	return		;funcret
  2629  002E34                     __end_of_TMR2_Initialize:
  2630                           	callstack 0
  2631                           
  2632 ;; *************** function _PWM5_Initialize *****************
  2633 ;; Defined at:
  2634 ;;		line 64 in file "mcc_generated_files/pwm5.c"
  2635 ;; Parameters:    Size  Location     Type
  2636 ;;		None
  2637 ;; Auto vars:     Size  Location     Type
  2638 ;;		None
  2639 ;; Return value:  Size  Location     Type
  2640 ;;                  1    wreg      void 
  2641 ;; Registers used:
  2642 ;;		wreg, status,2
  2643 ;; Tracked objects:
  2644 ;;		On entry : 0/0
  2645 ;;		On exit  : 0/0
  2646 ;;		Unchanged: 0/0
  2647 ;; Data sizes:     COMRAM   BANK0   BANK1   BANK2
  2648 ;;      Params:         0       0       0       0
  2649 ;;      Locals:         0       0       0       0
  2650 ;;      Temps:          0       0       0       0
  2651 ;;      Totals:         0       0       0       0
  2652 ;;Total ram usage:        0 bytes
  2653 ;; Hardware stack levels used: 1
  2654 ;; This function calls:
  2655 ;;		Nothing
  2656 ;; This function is called by:
  2657 ;;		_SYSTEM_Initialize
  2658 ;; This function uses a non-reentrant model
  2659 ;;
  2660                           
  2661                           	psect	text9
  2662  002E56                     __ptext9:
  2663                           	callstack 0
  2664  002E56                     _PWM5_Initialize:
  2665                           	callstack 29
  2666  002E56                     
  2667                           ;mcc_generated_files/pwm5.c: 69:  CCP5CON = 0x0C;
  2668  002E56  0E0C               	movlw	12
  2669  002E58  010F               	movlb	15	; () banked
  2670  002E5A  6F54               	movwf	84,b	;volatile
  2671                           
  2672                           ;mcc_generated_files/pwm5.c: 72:  CCPR5L = 0x00;
  2673  002E5C  0E00               	movlw	0
  2674  002E5E  6F55               	movwf	85,b	;volatile
  2675                           
  2676                           ;mcc_generated_files/pwm5.c: 75:  CCPR5H = 0x00;
  2677  002E60  0E00               	movlw	0
  2678  002E62  6F56               	movwf	86,b	;volatile
  2679                           
  2680                           ;mcc_generated_files/pwm5.c: 78:  CCPTMRS1bits.C5TSEL = 0x0;
  2681  002E64  0EF3               	movlw	-13
  2682  002E66  1748               	andwf	72,f,b	;volatile
  2683  002E68                     
  2684                           ; BSR set to: 15
  2685  002E68  0012               	return		;funcret
  2686  002E6A                     __end_of_PWM5_Initialize:
  2687                           	callstack 0
  2688                           
  2689 ;; *************** function _PWM4_Initialize *****************
  2690 ;; Defined at:
  2691 ;;		line 64 in file "mcc_generated_files/pwm4.c"
  2692 ;; Parameters:    Size  Location     Type
  2693 ;;		None
  2694 ;; Auto vars:     Size  Location     Type
  2695 ;;		None
  2696 ;; Return value:  Size  Location     Type
  2697 ;;                  1    wreg      void 
  2698 ;; Registers used:
  2699 ;;		wreg, status,2
  2700 ;; Tracked objects:
  2701 ;;		On entry : 0/0
  2702 ;;		On exit  : 0/0
  2703 ;;		Unchanged: 0/0
  2704 ;; Data sizes:     COMRAM   BANK0   BANK1   BANK2
  2705 ;;      Params:         0       0       0       0
  2706 ;;      Locals:         0       0       0       0
  2707 ;;      Temps:          0       0       0       0
  2708 ;;      Totals:         0       0       0       0
  2709 ;;Total ram usage:        0 bytes
  2710 ;; Hardware stack levels used: 1
  2711 ;; This function calls:
  2712 ;;		Nothing
  2713 ;; This function is called by:
  2714 ;;		_SYSTEM_Initialize
  2715 ;; This function uses a non-reentrant model
  2716 ;;
  2717                           
  2718                           	psect	text10
  2719  002E42                     __ptext10:
  2720                           	callstack 0
  2721  002E42                     _PWM4_Initialize:
  2722                           	callstack 29
  2723  002E42                     
  2724                           ;mcc_generated_files/pwm4.c: 69:  CCP4CON = 0x1C;
  2725  002E42  0E1C               	movlw	28
  2726  002E44  010F               	movlb	15	; () banked
  2727  002E46  6F57               	movwf	87,b	;volatile
  2728                           
  2729                           ;mcc_generated_files/pwm4.c: 72:  CCPR4L = 0x02;
  2730  002E48  0E02               	movlw	2
  2731  002E4A  6F58               	movwf	88,b	;volatile
  2732                           
  2733                           ;mcc_generated_files/pwm4.c: 75:  CCPR4H = 0x00;
  2734  002E4C  0E00               	movlw	0
  2735  002E4E  6F59               	movwf	89,b	;volatile
  2736                           
  2737                           ;mcc_generated_files/pwm4.c: 78:  CCPTMRS1bits.C4TSEL = 0x0;
  2738  002E50  0EFC               	movlw	-4
  2739  002E52  1748               	andwf	72,f,b	;volatile
  2740  002E54                     
  2741                           ; BSR set to: 15
  2742  002E54  0012               	return		;funcret
  2743  002E56                     __end_of_PWM4_Initialize:
  2744                           	callstack 0
  2745                           
  2746 ;; *************** function _PIN_MANAGER_Initialize *****************
  2747 ;; Defined at:
  2748 ;;		line 55 in file "mcc_generated_files/pin_manager.c"
  2749 ;; Parameters:    Size  Location     Type
  2750 ;;		None
  2751 ;; Auto vars:     Size  Location     Type
  2752 ;;		None
  2753 ;; Return value:  Size  Location     Type
  2754 ;;                  1    wreg      void 
  2755 ;; Registers used:
  2756 ;;		wreg, status,2
  2757 ;; Tracked objects:
  2758 ;;		On entry : 0/0
  2759 ;;		On exit  : 0/0
  2760 ;;		Unchanged: 0/0
  2761 ;; Data sizes:     COMRAM   BANK0   BANK1   BANK2
  2762 ;;      Params:         0       0       0       0
  2763 ;;      Locals:         0       0       0       0
  2764 ;;      Temps:          0       0       0       0
  2765 ;;      Totals:         0       0       0       0
  2766 ;;Total ram usage:        0 bytes
  2767 ;; Hardware stack levels used: 1
  2768 ;; This function calls:
  2769 ;;		Nothing
  2770 ;; This function is called by:
  2771 ;;		_SYSTEM_Initialize
  2772 ;; This function uses a non-reentrant model
  2773 ;;
  2774                           
  2775                           	psect	text11
  2776  002E9A                     __ptext11:
  2777                           	callstack 0
  2778  002E9A                     _PIN_MANAGER_Initialize:
  2779                           	callstack 29
  2780  002E9A                     
  2781                           ;mcc_generated_files/pin_manager.c: 60:     LATA = 0x00;
  2782  002E9A  0E00               	movlw	0
  2783  002E9C  6E89               	movwf	137,c	;volatile
  2784                           
  2785                           ;mcc_generated_files/pin_manager.c: 61:     LATB = 0x00;
  2786  002E9E  0E00               	movlw	0
  2787  002EA0  6E8A               	movwf	138,c	;volatile
  2788                           
  2789                           ;mcc_generated_files/pin_manager.c: 62:     LATC = 0x00;
  2790  002EA2  0E00               	movlw	0
  2791  002EA4  6E8B               	movwf	139,c	;volatile
  2792                           
  2793                           ;mcc_generated_files/pin_manager.c: 67:     TRISA = 0xEF;
  2794  002EA6  0EEF               	movlw	239
  2795  002EA8  6E92               	movwf	146,c	;volatile
  2796                           
  2797                           ;mcc_generated_files/pin_manager.c: 68:     TRISB = 0x00;
  2798  002EAA  0E00               	movlw	0
  2799  002EAC  6E93               	movwf	147,c	;volatile
  2800  002EAE                     
  2801                           ;mcc_generated_files/pin_manager.c: 69:     TRISC = 0xFF;
  2802  002EAE  6894               	setf	148,c	;volatile
  2803                           
  2804                           ;mcc_generated_files/pin_manager.c: 74:     ANSELC = 0xFC;
  2805  002EB0  0EFC               	movlw	252
  2806  002EB2  010F               	movlb	15	; () banked
  2807  002EB4  6F3A               	movwf	58,b	;volatile
  2808                           
  2809                           ;mcc_generated_files/pin_manager.c: 75:     ANSELB = 0x00;
  2810  002EB6  0E00               	movlw	0
  2811  002EB8  6F39               	movwf	57,b	;volatile
  2812                           
  2813                           ;mcc_generated_files/pin_manager.c: 76:     ANSELA = 0x2F;
  2814  002EBA  0E2F               	movlw	47
  2815  002EBC  6F38               	movwf	56,b	;volatile
  2816                           
  2817                           ;mcc_generated_files/pin_manager.c: 81:     WPUB = 0x00;
  2818  002EBE  0E00               	movlw	0
  2819  002EC0  6E61               	movwf	97,c	;volatile
  2820  002EC2                     
  2821                           ; BSR set to: 15
  2822                           ;mcc_generated_files/pin_manager.c: 82:     INTCON2bits.nRBPU = 1;
  2823  002EC2  8EF1               	bsf	241,7,c	;volatile
  2824  002EC4                     
  2825                           ; BSR set to: 15
  2826  002EC4  0012               	return		;funcret
  2827  002EC6                     __end_of_PIN_MANAGER_Initialize:
  2828                           	callstack 0
  2829                           
  2830 ;; *************** function _OSCILLATOR_Initialize *****************
  2831 ;; Defined at:
  2832 ;;		line 61 in file "mcc_generated_files/mcc.c"
  2833 ;; Parameters:    Size  Location     Type
  2834 ;;		None
  2835 ;; Auto vars:     Size  Location     Type
  2836 ;;		None
  2837 ;; Return value:  Size  Location     Type
  2838 ;;                  1    wreg      void 
  2839 ;; Registers used:
  2840 ;;		wreg, status,2
  2841 ;; Tracked objects:
  2842 ;;		On entry : 0/0
  2843 ;;		On exit  : 0/0
  2844 ;;		Unchanged: 0/0
  2845 ;; Data sizes:     COMRAM   BANK0   BANK1   BANK2
  2846 ;;      Params:         0       0       0       0
  2847 ;;      Locals:         0       0       0       0
  2848 ;;      Temps:          0       0       0       0
  2849 ;;      Totals:         0       0       0       0
  2850 ;;Total ram usage:        0 bytes
  2851 ;; Hardware stack levels used: 1
  2852 ;; This function calls:
  2853 ;;		Nothing
  2854 ;; This function is called by:
  2855 ;;		_SYSTEM_Initialize
  2856 ;; This function uses a non-reentrant model
  2857 ;;
  2858                           
  2859                           	psect	text12
  2860  002E18                     __ptext12:
  2861                           	callstack 0
  2862  002E18                     _OSCILLATOR_Initialize:
  2863                           	callstack 29
  2864  002E18                     
  2865                           ;mcc_generated_files/mcc.c: 64:     OSCCON = 0x72;
  2866  002E18  0E72               	movlw	114
  2867  002E1A  6ED3               	movwf	211,c	;volatile
  2868                           
  2869                           ;mcc_generated_files/mcc.c: 66:     OSCCON2 = 0x14;
  2870  002E1C  0E14               	movlw	20
  2871  002E1E  6ED2               	movwf	210,c	;volatile
  2872                           
  2873                           ;mcc_generated_files/mcc.c: 68:     OSCTUNE = 0x00;
  2874  002E20  0E00               	movlw	0
  2875  002E22  6E9B               	movwf	155,c	;volatile
  2876  002E24  0012               	return		;funcret
  2877  002E26                     __end_of_OSCILLATOR_Initialize:
  2878                           	callstack 0
  2879                           
  2880 ;; *************** function _ADC_Initialize *****************
  2881 ;; Defined at:
  2882 ;;		line 62 in file "mcc_generated_files/adc.c"
  2883 ;; Parameters:    Size  Location     Type
  2884 ;;		None
  2885 ;; Auto vars:     Size  Location     Type
  2886 ;;		None
  2887 ;; Return value:  Size  Location     Type
  2888 ;;                  1    wreg      void 
  2889 ;; Registers used:
  2890 ;;		wreg, status,2
  2891 ;; Tracked objects:
  2892 ;;		On entry : 0/0
  2893 ;;		On exit  : 0/0
  2894 ;;		Unchanged: 0/0
  2895 ;; Data sizes:     COMRAM   BANK0   BANK1   BANK2
  2896 ;;      Params:         0       0       0       0
  2897 ;;      Locals:         0       0       0       0
  2898 ;;      Temps:          0       0       0       0
  2899 ;;      Totals:         0       0       0       0
  2900 ;;Total ram usage:        0 bytes
  2901 ;; Hardware stack levels used: 1
  2902 ;; This function calls:
  2903 ;;		Nothing
  2904 ;; This function is called by:
  2905 ;;		_SYSTEM_Initialize
  2906 ;; This function uses a non-reentrant model
  2907 ;;
  2908                           
  2909                           	psect	text13
  2910  002E6A                     __ptext13:
  2911                           	callstack 0
  2912  002E6A                     _ADC_Initialize:
  2913                           	callstack 29
  2914  002E6A                     
  2915                           ;mcc_generated_files/adc.c: 67:     ADCON1 = 0x00;
  2916  002E6A  0E00               	movlw	0
  2917  002E6C  6EC1               	movwf	193,c	;volatile
  2918                           
  2919                           ;mcc_generated_files/adc.c: 70:     ADCON2 = 0x05;
  2920  002E6E  0E05               	movlw	5
  2921  002E70  6EC0               	movwf	192,c	;volatile
  2922                           
  2923                           ;mcc_generated_files/adc.c: 73:     ADRESL = 0x00;
  2924  002E72  0E00               	movlw	0
  2925  002E74  6EC3               	movwf	195,c	;volatile
  2926                           
  2927                           ;mcc_generated_files/adc.c: 76:     ADRESH = 0x00;
  2928  002E76  0E00               	movlw	0
  2929  002E78  6EC4               	movwf	196,c	;volatile
  2930                           
  2931                           ;mcc_generated_files/adc.c: 79:     ADCON0 = 0x01;
  2932  002E7A  0E01               	movlw	1
  2933  002E7C  6EC2               	movwf	194,c	;volatile
  2934  002E7E  0012               	return		;funcret
  2935  002E80                     __end_of_ADC_Initialize:
  2936                           	callstack 0
  2937                           
  2938 ;; *************** function _PWM5_LoadDutyValue *****************
  2939 ;; Defined at:
  2940 ;;		line 82 in file "mcc_generated_files/pwm5.c"
  2941 ;; Parameters:    Size  Location     Type
  2942 ;;  dutyValue       2    0[COMRAM] unsigned short 
  2943 ;; Auto vars:     Size  Location     Type
  2944 ;;		None
  2945 ;; Return value:  Size  Location     Type
  2946 ;;                  1    wreg      void 
  2947 ;; Registers used:
  2948 ;;		wreg, status,2, status,0
  2949 ;; Tracked objects:
  2950 ;;		On entry : 0/0
  2951 ;;		On exit  : 0/0
  2952 ;;		Unchanged: 0/0
  2953 ;; Data sizes:     COMRAM   BANK0   BANK1   BANK2
  2954 ;;      Params:         2       0       0       0
  2955 ;;      Locals:         0       0       0       0
  2956 ;;      Temps:          2       0       0       0
  2957 ;;      Totals:         4       0       0       0
  2958 ;;Total ram usage:        4 bytes
  2959 ;; Hardware stack levels used: 1
  2960 ;; This function calls:
  2961 ;;		Nothing
  2962 ;; This function is called by:
  2963 ;;		_main
  2964 ;; This function uses a non-reentrant model
  2965 ;;
  2966                           
  2967                           	psect	text14
  2968  002EF8                     __ptext14:
  2969                           	callstack 0
  2970  002EF8                     _PWM5_LoadDutyValue:
  2971                           	callstack 30
  2972  002EF8                     
  2973                           ;mcc_generated_files/pwm5.c: 82: void PWM5_LoadDutyValue(uint16_t dutyValue);mcc_generat
      +                          ed_files/pwm5.c: 83: {;mcc_generated_files/pwm5.c: 85:     CCPR5L = ((dutyValue & 0x03FC
      +                          )>>2);
  2974  002EF8  C001  F003         	movff	PWM5_LoadDutyValue@dutyValue,??_PWM5_LoadDutyValue
  2975  002EFC  C002  F004         	movff	PWM5_LoadDutyValue@dutyValue+1,??_PWM5_LoadDutyValue+1
  2976  002F00  90D8               	bcf	status,0,c
  2977  002F02  3204               	rrcf	(??_PWM5_LoadDutyValue+1)^0,f,c
  2978  002F04  3203               	rrcf	??_PWM5_LoadDutyValue^0,f,c
  2979  002F06  90D8               	bcf	status,0,c
  2980  002F08  3204               	rrcf	(??_PWM5_LoadDutyValue+1)^0,f,c
  2981  002F0A  3203               	rrcf	??_PWM5_LoadDutyValue^0,f,c
  2982  002F0C  5003               	movf	??_PWM5_LoadDutyValue^0,w,c
  2983  002F0E  010F               	movlb	15	; () banked
  2984  002F10  6F55               	movwf	85,b	;volatile
  2985                           
  2986                           ;mcc_generated_files/pwm5.c: 88:     CCP5CON = ((uint8_t)(CCP5CON & 0xCF) | ((dutyValue 
      +                          & 0x0003)<<4));
  2987  002F12  C001  F003         	movff	PWM5_LoadDutyValue@dutyValue,??_PWM5_LoadDutyValue
  2988  002F16  0E03               	movlw	3
  2989  002F18  1603               	andwf	??_PWM5_LoadDutyValue^0,f,c
  2990  002F1A  3A03               	swapf	??_PWM5_LoadDutyValue^0,f,c
  2991  002F1C  0EF0               	movlw	240
  2992  002F1E  1603               	andwf	??_PWM5_LoadDutyValue^0,f,c
  2993  002F20  5154               	movf	84,w,b	;volatile
  2994  002F22  0BCF               	andlw	207
  2995  002F24  1003               	iorwf	??_PWM5_LoadDutyValue^0,w,c
  2996  002F26  6F54               	movwf	84,b	;volatile
  2997  002F28                     
  2998                           ; BSR set to: 15
  2999  002F28  0012               	return		;funcret
  3000  002F2A                     __end_of_PWM5_LoadDutyValue:
  3001                           	callstack 0
  3002                           
  3003 ;; *************** function _PWM4_LoadDutyValue *****************
  3004 ;; Defined at:
  3005 ;;		line 82 in file "mcc_generated_files/pwm4.c"
  3006 ;; Parameters:    Size  Location     Type
  3007 ;;  dutyValue       2    0[COMRAM] unsigned short 
  3008 ;; Auto vars:     Size  Location     Type
  3009 ;;		None
  3010 ;; Return value:  Size  Location     Type
  3011 ;;                  1    wreg      void 
  3012 ;; Registers used:
  3013 ;;		wreg, status,2, status,0
  3014 ;; Tracked objects:
  3015 ;;		On entry : 0/0
  3016 ;;		On exit  : 0/0
  3017 ;;		Unchanged: 0/0
  3018 ;; Data sizes:     COMRAM   BANK0   BANK1   BANK2
  3019 ;;      Params:         2       0       0       0
  3020 ;;      Locals:         0       0       0       0
  3021 ;;      Temps:          2       0       0       0
  3022 ;;      Totals:         4       0       0       0
  3023 ;;Total ram usage:        4 bytes
  3024 ;; Hardware stack levels used: 1
  3025 ;; This function calls:
  3026 ;;		Nothing
  3027 ;; This function is called by:
  3028 ;;		_main
  3029 ;; This function uses a non-reentrant model
  3030 ;;
  3031                           
  3032                           	psect	text15
  3033  002EC6                     __ptext15:
  3034                           	callstack 0
  3035  002EC6                     _PWM4_LoadDutyValue:
  3036                           	callstack 30
  3037  002EC6                     
  3038                           ;mcc_generated_files/pwm4.c: 82: void PWM4_LoadDutyValue(uint16_t dutyValue);mcc_generat
      +                          ed_files/pwm4.c: 83: {;mcc_generated_files/pwm4.c: 85:     CCPR4L = ((dutyValue & 0x03FC
      +                          )>>2);
  3039  002EC6  C001  F003         	movff	PWM4_LoadDutyValue@dutyValue,??_PWM4_LoadDutyValue
  3040  002ECA  C002  F004         	movff	PWM4_LoadDutyValue@dutyValue+1,??_PWM4_LoadDutyValue+1
  3041  002ECE  90D8               	bcf	status,0,c
  3042  002ED0  3204               	rrcf	(??_PWM4_LoadDutyValue+1)^0,f,c
  3043  002ED2  3203               	rrcf	??_PWM4_LoadDutyValue^0,f,c
  3044  002ED4  90D8               	bcf	status,0,c
  3045  002ED6  3204               	rrcf	(??_PWM4_LoadDutyValue+1)^0,f,c
  3046  002ED8  3203               	rrcf	??_PWM4_LoadDutyValue^0,f,c
  3047  002EDA  5003               	movf	??_PWM4_LoadDutyValue^0,w,c
  3048  002EDC  010F               	movlb	15	; () banked
  3049  002EDE  6F58               	movwf	88,b	;volatile
  3050                           
  3051                           ;mcc_generated_files/pwm4.c: 88:     CCP4CON = ((uint8_t)(CCP4CON & 0xCF) | ((dutyValue 
      +                          & 0x0003)<<4));
  3052  002EE0  C001  F003         	movff	PWM4_LoadDutyValue@dutyValue,??_PWM4_LoadDutyValue
  3053  002EE4  0E03               	movlw	3
  3054  002EE6  1603               	andwf	??_PWM4_LoadDutyValue^0,f,c
  3055  002EE8  3A03               	swapf	??_PWM4_LoadDutyValue^0,f,c
  3056  002EEA  0EF0               	movlw	240
  3057  002EEC  1603               	andwf	??_PWM4_LoadDutyValue^0,f,c
  3058  002EEE  5157               	movf	87,w,b	;volatile
  3059  002EF0  0BCF               	andlw	207
  3060  002EF2  1003               	iorwf	??_PWM4_LoadDutyValue^0,w,c
  3061  002EF4  6F57               	movwf	87,b	;volatile
  3062  002EF6                     
  3063                           ; BSR set to: 15
  3064  002EF6  0012               	return		;funcret
  3065  002EF8                     __end_of_PWM4_LoadDutyValue:
  3066                           	callstack 0
  3067                           
  3068 ;; *************** function _ADC_GetConversion *****************
  3069 ;; Defined at:
  3070 ;;		line 110 in file "mcc_generated_files/adc.c"
  3071 ;; Parameters:    Size  Location     Type
  3072 ;;  channel         1    wreg     enum E5740
  3073 ;; Auto vars:     Size  Location     Type
  3074 ;;  channel         1    4[COMRAM] enum E5740
  3075 ;; Return value:  Size  Location     Type
  3076 ;;                  2    0[COMRAM] unsigned short 
  3077 ;; Registers used:
  3078 ;;		wreg, status,2, status,0
  3079 ;; Tracked objects:
  3080 ;;		On entry : 0/0
  3081 ;;		On exit  : 0/0
  3082 ;;		Unchanged: 0/0
  3083 ;; Data sizes:     COMRAM   BANK0   BANK1   BANK2
  3084 ;;      Params:         2       0       0       0
  3085 ;;      Locals:         1       0       0       0
  3086 ;;      Temps:          2       0       0       0
  3087 ;;      Totals:         5       0       0       0
  3088 ;;Total ram usage:        5 bytes
  3089 ;; Hardware stack levels used: 1
  3090 ;; This function calls:
  3091 ;;		Nothing
  3092 ;; This function is called by:
  3093 ;;		_main
  3094 ;; This function uses a non-reentrant model
  3095 ;;
  3096                           
  3097                           	psect	text16
  3098  002F2A                     __ptext16:
  3099                           	callstack 0
  3100  002F2A                     _ADC_GetConversion:
  3101                           	callstack 30
  3102                           
  3103                           ; BSR set to: 15
  3104                           ;incstack = 0
  3105                           ;ADC_GetConversion@channel stored from wreg
  3106  002F2A  6E05               	movwf	ADC_GetConversion@channel^0,c
  3107  002F2C                     
  3108                           ;mcc_generated_files/adc.c: 110: adc_result_t ADC_GetConversion(adc_channel_t channel);m
      +                          cc_generated_files/adc.c: 111: {;mcc_generated_files/adc.c: 113:     ADCON0bits.CHS = ch
      +                          annel;
  3109  002F2C  C005  F003         	movff	ADC_GetConversion@channel,??_ADC_GetConversion
  3110  002F30  4603               	rlncf	??_ADC_GetConversion^0,f,c
  3111  002F32  4603               	rlncf	??_ADC_GetConversion^0,f,c
  3112  002F34  50C2               	movf	194,w,c	;volatile
  3113  002F36  1803               	xorwf	??_ADC_GetConversion^0,w,c
  3114  002F38  0B83               	andlw	-125
  3115  002F3A  1803               	xorwf	??_ADC_GetConversion^0,w,c
  3116  002F3C  6EC2               	movwf	194,c	;volatile
  3117  002F3E                     
  3118                           ;mcc_generated_files/adc.c: 116:     ADCON0bits.ADON = 1;
  3119  002F3E  80C2               	bsf	194,0,c	;volatile
  3120  002F40                     
  3121                           ;mcc_generated_files/adc.c: 119:     ADCON0bits.GO_nDONE = 1;
  3122  002F40  82C2               	bsf	194,1,c	;volatile
  3123  002F42                     l124:
  3124                           
  3125                           ;mcc_generated_files/adc.c: 122:     while (ADCON0bits.GO_nDONE)
  3126  002F42  B2C2               	btfsc	194,1,c	;volatile
  3127  002F44  EFA6  F017         	goto	u1291
  3128  002F48  EFA8  F017         	goto	u1290
  3129  002F4C                     u1291:
  3130  002F4C  EFA1  F017         	goto	l124
  3131  002F50                     u1290:
  3132  002F50                     
  3133                           ;mcc_generated_files/adc.c: 127:     return ((adc_result_t)((ADRESH << 8) + ADRESL));
  3134  002F50  50C4               	movf	196,w,c	;volatile
  3135  002F52  6E04               	movwf	(??_ADC_GetConversion+1)^0,c
  3136  002F54  6A03               	clrf	??_ADC_GetConversion^0,c
  3137  002F56  50C3               	movf	195,w,c	;volatile
  3138  002F58  2403               	addwf	??_ADC_GetConversion^0,w,c
  3139  002F5A  6E01               	movwf	?_ADC_GetConversion^0,c
  3140  002F5C  0E00               	movlw	0
  3141  002F5E  2004               	addwfc	(??_ADC_GetConversion+1)^0,w,c
  3142  002F60  6E02               	movwf	(?_ADC_GetConversion+1)^0,c
  3143  002F62  0012               	return		;funcret
  3144  002F64                     __end_of_ADC_GetConversion:
  3145                           	callstack 0
  3146  0000                     
  3147                           	psect	rparam
  3148  0000                     
  3149                           	psect	idloc
  3150                           
  3151                           ;Config register IDLOC0 @ 0x200000
  3152                           ;	unspecified, using default values
  3153  200000                     	org	2097152
  3154  200000  FF                 	db	255
  3155                           
  3156                           ;Config register IDLOC1 @ 0x200001
  3157                           ;	unspecified, using default values
  3158  200001                     	org	2097153
  3159  200001  FF                 	db	255
  3160                           
  3161                           ;Config register IDLOC2 @ 0x200002
  3162                           ;	unspecified, using default values
  3163  200002                     	org	2097154
  3164  200002  FF                 	db	255
  3165                           
  3166                           ;Config register IDLOC3 @ 0x200003
  3167                           ;	unspecified, using default values
  3168  200003                     	org	2097155
  3169  200003  FF                 	db	255
  3170                           
  3171                           ;Config register IDLOC4 @ 0x200004
  3172                           ;	unspecified, using default values
  3173  200004                     	org	2097156
  3174  200004  FF                 	db	255
  3175                           
  3176                           ;Config register IDLOC5 @ 0x200005
  3177                           ;	unspecified, using default values
  3178  200005                     	org	2097157
  3179  200005  FF                 	db	255
  3180                           
  3181                           ;Config register IDLOC6 @ 0x200006
  3182                           ;	unspecified, using default values
  3183  200006                     	org	2097158
  3184  200006  FF                 	db	255
  3185                           
  3186                           ;Config register IDLOC7 @ 0x200007
  3187                           ;	unspecified, using default values
  3188  200007                     	org	2097159
  3189  200007  FF                 	db	255
  3190                           
  3191                           	psect	config
  3192                           
  3193                           ; Padding undefined space
  3194  300000                     	org	3145728
  3195  300000  FF                 	db	255
  3196                           
  3197                           ;Config register CONFIG1H @ 0x300001
  3198                           ;	Oscillator Selection bits
  3199                           ;	FOSC = INTIO67, Internal oscillator block
  3200                           ;	4X PLL Enable
  3201                           ;	PLLCFG = OFF, Oscillator used directly
  3202                           ;	Primary clock enable bit
  3203                           ;	PRICLKEN = ON, Primary clock enabled
  3204                           ;	Fail-Safe Clock Monitor Enable bit
  3205                           ;	FCMEN = OFF, Fail-Safe Clock Monitor disabled
  3206                           ;	Internal/External Oscillator Switchover bit
  3207                           ;	IESO = OFF, Oscillator Switchover mode disabled
  3208  300001                     	org	3145729
  3209  300001  28                 	db	40
  3210                           
  3211                           ;Config register CONFIG2L @ 0x300002
  3212                           ;	Power-up Timer Enable bit
  3213                           ;	PWRTEN = OFF, Power up timer disabled
  3214                           ;	Brown-out Reset Enable bits
  3215                           ;	BOREN = SBORDIS, Brown-out Reset enabled in hardware only (SBOREN is disabled)
  3216                           ;	Brown Out Reset Voltage bits
  3217                           ;	BORV = 190, VBOR set to 1.90 V nominal
  3218  300002                     	org	3145730
  3219  300002  1F                 	db	31
  3220                           
  3221                           ;Config register CONFIG2H @ 0x300003
  3222                           ;	Watchdog Timer Enable bits
  3223                           ;	WDTEN = OFF, Watch dog timer is always disabled. SWDTEN has no effect.
  3224                           ;	Watchdog Timer Postscale Select bits
  3225                           ;	WDTPS = 32768, 1:32768
  3226  300003                     	org	3145731
  3227  300003  3C                 	db	60
  3228                           
  3229                           ; Padding undefined space
  3230  300004                     	org	3145732
  3231  300004  FF                 	db	255
  3232                           
  3233                           ;Config register CONFIG3H @ 0x300005
  3234                           ;	CCP2 MUX bit
  3235                           ;	CCP2MX = PORTC1, CCP2 input/output is multiplexed with RC1
  3236                           ;	PORTB A/D Enable bit
  3237                           ;	PBADEN = ON, PORTB<5:0> pins are configured as analog input channels on Reset
  3238                           ;	P3A/CCP3 Mux bit
  3239                           ;	CCP3MX = PORTB5, P3A/CCP3 input/output is multiplexed with RB5
  3240                           ;	HFINTOSC Fast Start-up
  3241                           ;	HFOFST = ON, HFINTOSC output and ready status are not delayed by the oscillator stable
      +                           status
  3242                           ;	Timer3 Clock input mux bit
  3243                           ;	T3CMX = PORTC0, T3CKI is on RC0
  3244                           ;	ECCP2 B output mux bit
  3245                           ;	P2BMX = PORTB5, P2B is on RB5
  3246                           ;	MCLR Pin Enable bit
  3247                           ;	MCLRE = EXTMCLR, MCLR pin enabled, RE3 input pin disabled
  3248  300005                     	org	3145733
  3249  300005  BF                 	db	191
  3250                           
  3251                           ;Config register CONFIG4L @ 0x300006
  3252                           ;	Stack Full/Underflow Reset Enable bit
  3253                           ;	STVREN = ON, Stack full/underflow will cause Reset
  3254                           ;	Single-Supply ICSP Enable bit
  3255                           ;	LVP = ON, Single-Supply ICSP enabled if MCLRE is also 1
  3256                           ;	Extended Instruction Set Enable bit
  3257                           ;	XINST = OFF, Instruction set extension and Indexed Addressing mode disabled (Legacy mo
      +                          de)
  3258                           ;	Background Debug
  3259                           ;	DEBUG = OFF, Disabled
  3260  300006                     	org	3145734
  3261  300006  85                 	db	133
  3262                           
  3263                           ; Padding undefined space
  3264  300007                     	org	3145735
  3265  300007  FF                 	db	255
  3266                           
  3267                           ;Config register CONFIG5L @ 0x300008
  3268                           ;	Code Protection Block 0
  3269                           ;	CP0 = OFF, Block 0 (000800-001FFFh) not code-protected
  3270                           ;	Code Protection Block 1
  3271                           ;	CP1 = OFF, Block 1 (002000-003FFFh) not code-protected
  3272  300008                     	org	3145736
  3273  300008  03                 	db	3
  3274                           
  3275                           ;Config register CONFIG5H @ 0x300009
  3276                           ;	Boot Block Code Protection bit
  3277                           ;	CPB = OFF, Boot block (000000-0007FFh) not code-protected
  3278                           ;	Data EEPROM Code Protection bit
  3279                           ;	CPD = OFF, Data EEPROM not code-protected
  3280  300009                     	org	3145737
  3281  300009  C0                 	db	192
  3282                           
  3283                           ;Config register CONFIG6L @ 0x30000A
  3284                           ;	Write Protection Block 0
  3285                           ;	WRT0 = OFF, Block 0 (000800-001FFFh) not write-protected
  3286                           ;	Write Protection Block 1
  3287                           ;	WRT1 = OFF, Block 1 (002000-003FFFh) not write-protected
  3288  30000A                     	org	3145738
  3289  30000A  03                 	db	3
  3290                           
  3291                           ;Config register CONFIG6H @ 0x30000B
  3292                           ;	Configuration Register Write Protection bit
  3293                           ;	WRTC = OFF, Configuration registers (300000-3000FFh) not write-protected
  3294                           ;	Boot Block Write Protection bit
  3295                           ;	WRTB = OFF, Boot Block (000000-0007FFh) not write-protected
  3296                           ;	Data EEPROM Write Protection bit
  3297                           ;	WRTD = OFF, Data EEPROM not write-protected
  3298  30000B                     	org	3145739
  3299  30000B  E0                 	db	224
  3300                           
  3301                           ;Config register CONFIG7L @ 0x30000C
  3302                           ;	Table Read Protection Block 0
  3303                           ;	EBTR0 = OFF, Block 0 (000800-001FFFh) not protected from table reads executed in other
      +                           blocks
  3304                           ;	Table Read Protection Block 1
  3305                           ;	EBTR1 = OFF, Block 1 (002000-003FFFh) not protected from table reads executed in other
      +                           blocks
  3306  30000C                     	org	3145740
  3307  30000C  03                 	db	3
  3308                           
  3309                           ;Config register CONFIG7H @ 0x30000D
  3310                           ;	Boot Block Table Read Protection bit
  3311                           ;	EBTRB = OFF, Boot Block (000000-0007FFh) not protected from table reads executed in ot
      +                          her blocks
  3312  30000D                     	org	3145741
  3313  30000D  40                 	db	64
  3314                           tosu	equ	0xFFF
  3315                           tosh	equ	0xFFE
  3316                           tosl	equ	0xFFD
  3317                           stkptr	equ	0xFFC
  3318                           pclatu	equ	0xFFB
  3319                           pclath	equ	0xFFA
  3320                           pcl	equ	0xFF9
  3321                           tblptru	equ	0xFF8
  3322                           tblptrh	equ	0xFF7
  3323                           tblptrl	equ	0xFF6
  3324                           tablat	equ	0xFF5
  3325                           prodh	equ	0xFF4
  3326                           prodl	equ	0xFF3
  3327                           indf0	equ	0xFEF
  3328                           postinc0	equ	0xFEE
  3329                           postdec0	equ	0xFED
  3330                           preinc0	equ	0xFEC
  3331                           plusw0	equ	0xFEB
  3332                           fsr0h	equ	0xFEA
  3333                           fsr0l	equ	0xFE9
  3334                           wreg	equ	0xFE8
  3335                           indf1	equ	0xFE7
  3336                           postinc1	equ	0xFE6
  3337                           postdec1	equ	0xFE5
  3338                           preinc1	equ	0xFE4
  3339                           plusw1	equ	0xFE3
  3340                           fsr1h	equ	0xFE2
  3341                           fsr1l	equ	0xFE1
  3342                           bsr	equ	0xFE0
  3343                           indf2	equ	0xFDF
  3344                           postinc2	equ	0xFDE
  3345                           postdec2	equ	0xFDD
  3346                           preinc2	equ	0xFDC
  3347                           plusw2	equ	0xFDB
  3348                           fsr2h	equ	0xFDA
  3349                           fsr2l	equ	0xFD9
  3350                           status	equ	0xFD8

Data Sizes:
    Strings     0
    Constant    0
    Data        0
    BSS         2
    Persistent  0
    Stack       0

Auto Spaces:
    Space          Size  Autos    Used
    COMRAM           95     93      95
    BANK0           160      0       0
    BANK1           256      0       0
    BANK2           256      0       0

Pointer List with Targets:

    ADC_InterruptHandler	PTR FTN()void  size(2) Largest target is 1
		 -> Absolute function(), 


Critical Paths under _main in COMRAM

    _main->___fltol
    ___xxtofl->_ADC_GetConversion
    ___fltol->___flsub
    ___flsub->___fladd
    ___fladd->___flmul
    ___flmul->___xxtofl
    ___flge->___xxtofl

Critical Paths under _main in BANK0

    None.

Critical Paths under _main in BANK1

    None.

Critical Paths under _main in BANK2

    None.

Call Graph Tables:

 ---------------------------------------------------------------------------------
 (Depth) Function   	        Calls       Base Space   Used Autos Params    Refs
 ---------------------------------------------------------------------------------
 (0) _main                                                15    15      0   10943
                                             78 COMRAM    15    15      0
                  _ADC_GetConversion
                 _PWM4_LoadDutyValue
                 _PWM5_LoadDutyValue
                  _SYSTEM_Initialize
                            ___fladd
                             ___flge
                            ___flmul
                            ___flsub
                            ___fltol
                           ___xxtofl
 ---------------------------------------------------------------------------------
 (1) ___xxtofl                                            14    10      4    1006
                                              5 COMRAM    14    10      4
                  _ADC_GetConversion (ARG)
 ---------------------------------------------------------------------------------
 (1) ___fltol                                             10     6      4     457
                                             68 COMRAM    10     6      4
                  _ADC_GetConversion (ARG)
                            ___fladd (ARG)
                            ___flmul (ARG)
                            ___flsub (ARG)
                           ___xxtofl (ARG)
 ---------------------------------------------------------------------------------
 (1) ___flsub                                              8     0      8    2889
                                             60 COMRAM     8     0      8
                            ___fladd
                            ___flmul (ARG)
                           ___xxtofl (ARG)
 ---------------------------------------------------------------------------------
 (2) ___fladd                                             16     8      8    2566
                                             44 COMRAM    16     8      8
                  _ADC_GetConversion (ARG)
                            ___flmul (ARG)
                           ___xxtofl (ARG)
 ---------------------------------------------------------------------------------
 (1) ___flmul                                             25    17      8    2200
                                             19 COMRAM    25    17      8
                  _ADC_GetConversion (ARG)
                           ___xxtofl (ARG)
 ---------------------------------------------------------------------------------
 (1) ___flge                                              12     4      8     942
                                             19 COMRAM    12     4      8
                           ___xxtofl (ARG)
 ---------------------------------------------------------------------------------
 (1) _SYSTEM_Initialize                                    0     0      0       0
                     _ADC_Initialize
              _OSCILLATOR_Initialize
             _PIN_MANAGER_Initialize
                    _PWM4_Initialize
                    _PWM5_Initialize
                    _TMR2_Initialize
 ---------------------------------------------------------------------------------
 (2) _TMR2_Initialize                                      0     0      0       0
 ---------------------------------------------------------------------------------
 (2) _PWM5_Initialize                                      0     0      0       0
 ---------------------------------------------------------------------------------
 (2) _PWM4_Initialize                                      0     0      0       0
 ---------------------------------------------------------------------------------
 (2) _PIN_MANAGER_Initialize                               0     0      0       0
 ---------------------------------------------------------------------------------
 (2) _OSCILLATOR_Initialize                                0     0      0       0
 ---------------------------------------------------------------------------------
 (2) _ADC_Initialize                                       0     0      0       0
 ---------------------------------------------------------------------------------
 (1) _PWM5_LoadDutyValue                                   4     2      2     348
                                              0 COMRAM     4     2      2
 ---------------------------------------------------------------------------------
 (1) _PWM4_LoadDutyValue                                   4     2      2     196
                                              0 COMRAM     4     2      2
 ---------------------------------------------------------------------------------
 (1) _ADC_GetConversion                                    5     3      2      22
                                              0 COMRAM     5     3      2
 ---------------------------------------------------------------------------------
 Estimated maximum stack depth 2
 ---------------------------------------------------------------------------------

 Call Graph Graphs:

 _main (ROOT)
   _ADC_GetConversion
   _PWM4_LoadDutyValue
   _PWM5_LoadDutyValue
   _SYSTEM_Initialize
     _ADC_Initialize
     _OSCILLATOR_Initialize
     _PIN_MANAGER_Initialize
     _PWM4_Initialize
     _PWM5_Initialize
     _TMR2_Initialize
   ___fladd
     _ADC_GetConversion (ARG)
     ___flmul (ARG)
       _ADC_GetConversion (ARG)
       ___xxtofl (ARG)
         _ADC_GetConversion (ARG)
     ___xxtofl (ARG)
   ___flge
     ___xxtofl (ARG)
   ___flmul
   ___flsub
     ___fladd
     ___flmul (ARG)
     ___xxtofl (ARG)
   ___fltol
     _ADC_GetConversion (ARG)
     ___fladd (ARG)
     ___flmul (ARG)
     ___flsub (ARG)
     ___xxtofl (ARG)
   ___xxtofl

 Address spaces:
Name               Size   Autos  Total    Cost      Usage
BIGRAM             2FF      0       0      10        0.0%
EEDATA             100      0       0       0        0.0%
BITBANK2           100      0       0       6        0.0%
BANK2              100      0       0       7        0.0%
BITBANK1           100      0       0       9        0.0%
BANK1              100      0       0       5        0.0%
BITBANK0            A0      0       0       3        0.0%
BANK0               A0      0       0       4        0.0%
BITCOMRAM           5F      0       0       0        0.0%
COMRAM              5F     5D      5F       1      100.0%
BITSFR_1             0      0       0     200        0.0%
SFR_1                0      0       0     200        0.0%
BITSFR               0      0       0     200        0.0%
SFR                  0      0       0     200        0.0%
STACK                0      0       0       2        0.0%
NULL                 0      0       0       0        0.0%
ABS                  0      0      5F       8        0.0%
DATA                 0      0      5F      11        0.0%
CODE                 0      0       0       0        0.0%


Microchip Technology PIC18 Macro Assembler V2.32 build 20210201212658 
Symbol Table                                                                                   Sun Apr 11 21:05:28 2021

                             l41 2E68                               l27 2EC4  
                             l44 2F28                               l57 2E32  
                             l90 2EF6                               l87 2E54  
                            l124 2F42                              l109 2E7E  
                            l127 2F62                              l151 2E98  
                            l154 2E24                              l451 30AC  
                            l446 3066                              l710 3D1C  
                            l711 3CE2                              l802 39D0  
                            l812 3B00                              l804 3A48  
                            l805 3A36                              l709 3D2E  
                            l726 3E48                              l718 3FFE  
                            l478 31B2                              l735 3F18  
                            l751 2FA8                              l736 3F06  
                            l850 32FE                              l843 32A2  
                            l860 2E56                              l836 320A  
                            l870 2E6A                              l854 2E9A  
                            l862 2E26                              l839 3366  
                            l872 2E18                              l856 2EAE  
                            l864 2E28                              l858 2EC2  
                            l866 2E2C                              l795 37DA  
                            l868 2E42                              l799 3B3E  
                            _PR2 000FBB                              u900 3B5A  
                            u901 3B56                              u910 3B6C  
                            u911 3B68                              u920 3B7C  
                            u921 3B78                              u930 3BBE  
                            u931 3BBA                              u940 3BD4  
                            u941 3BD0                              u950 3BE6  
                            u951 3BE2                              u960 3BF6  
                            u961 3BF2                              u970 3C32  
                            u971 3C2E                              u980 3C40  
                            u981 3C3C                              u990 3CAE  
                            u991 3CAA                  _TMR2_Initialize 2E26  
                _PWM4_Initialize 2E42                              wreg 000FE8  
                   ___flmul@aexp 0025                     ___flmul@bexp 0026  
                    main@bat_lvl 005C                     ___flmul@sign 0020  
                   ___flmul@temp 002B                     ___flmul@prod 0027  
                   ___fltol@exp1 004E                             l1090 2E80  
                           l1500 3CDA                             l1420 3B5C  
                           l1510 3D10                             l1502 3CF0  
                           l1422 3B6C                             l1430 3B96  
                           l1414 3B40                             l1600 3FC2  
                           l1520 3D60                             l1512 3D1A  
                           l1504 3CFC                             l1440 3BC6  
                           l1432 3BA6                             l1424 3B7C  
                           l1416 3B4C                             l1610 3FEC  
                           l1602 3FD0                             l1530 3D9C  
                           l1522 3D70                             l1514 3D3C  
                           l1506 3D00                             l1450 3C06  
                           l1442 3BD4                             l1434 3BAC  
                           l1426 3B8C                             l1418 3B5A  
                           l1620 2F2C                             l1700 3902  
                           l1612 3FEE                             l1604 3FD6  
                           l1540 3DE2                             l1532 3DAA  
                           l1524 3D7E                             l1516 3D4C  
                           l1508 3D0E                             l1460 3C40  
                           l1452 3C08                             l1444 3BD6  
                           l1436 3BBE                             l1428 3B8E  
                           l1622 2F3E                             l1710 3998  
                           l1702 390E                             l1630 3716  
                           l1606 3FD8                             l1550 3E5E  
                           l1542 3E16                             l1534 3DAC  
                           l1526 3D8C                             l1470 3C54  
                           l1462 3C44                             l1446 3BE6  
                           l1454 3C10                             l1438 3BC0  
                           l1624 2F40                             l1616 2EF8  
                           l1720 39EE                             l1712 39B6  
                           l1704 392A                             l1640 3752  
                           l1632 3722                             l1608 3FDE  
                           l1560 3E9A                             l1552 3E6E  
                           l1544 3E18                             l1536 3DB6  
                           l1528 3D98                             l1480 3C68  
                           l1472 3C58                             l1464 3C48  
                           l1456 3C20                             l1448 3BF6  
                           l1800 3114                             l1626 2F50  
                           l1618 2EC6                             l1730 3A58  
                           l1722 39F2                             l1714 39C0  
                           l1706 3954                             l1650 3784  
                           l1642 3762                             l1634 3730  
                           l1570 3EC6                             l1562 3E9C  
                           l1546 3E28                             l1538 3DBC  
                           l1490 3C7C                             l1482 3C6C  
                           l1474 3C5C                             l1466 3C4C  
                           l1458 3C32                             l1810 313E  
                           l1802 3118                             l1740 3ABA  
                           l1732 3A64                             l1724 3A00  
                           l1716 39CE                             l1708 398A  
                           l1660 37C4                             l1652 3792  
                           l1644 3768                             l1636 3732  
                           l1580 3EFE                             l1564 3EAA  
                           l1556 3E82                             l1572 3EC8  
                           l1548 3E38                             l1484 3C70  
                           l1476 3C60                             l1468 3C50  
                           l1492 3C80                             l1820 3166  
                           l1812 3148                             l1804 3126  
                           l1900 35F8                             l1750 3B22  
                           l1742 3ACE                             l1734 3A72  
                           l1726 3A2E                             l1718 39E0  
                           l1670 380E                             l1662 37CA  
                           l1654 3794                             l1646 3778  
                           l1638 3742                             l1590 3F7C  
                           l1566 3EB2                             l1558 3E8C  
                           l1574 3ED6                             l1494 3C84  
                           l1486 3C74                             l1478 3C64  
                           l1822 3172                             l1814 3152  
                           l1902 3608                             l1752 3B24  
                           l1744 3AE8                             l1736 3A9C  
                           l1680 385E                             l1672 381A  
                           l1664 37EA                             l1656 37A4  
                           l1648 377E                             l1584 3F28  
                           l1592 3F7E                             l1576 3EDA  
                           l1568 3EB6                             l1496 3CAE  
                           l1488 3C78                             l1760 2F64  
                           l1824 3182                             l1840 3230  
                           l1832 31B6                             l1912 36AA  
                           l1904 360C                             l1770 2FE8  
                           l1746 3B04                             l1754 3B2A  
                           l1738 3AA0                             l1690 38A0  
                           l1682 386A                             l1674 3824  
                           l1666 37FA                             l1658 37B4  
                           l1594 3F8E                             l1586 3F34  
                           l1578 3EE8                             l1498 3CCA  
                           l1762 2F74                             l1826 3192  
                           l1850 328A                             l1834 31C6  
                           l1914 36BA                             l1906 3650  
                           l1780 3054                             l1772 3016  
                           l1756 3B2E                             l1748 3B14  
                           l1692 38AC                             l1684 3876  
                           l1676 383A                             l1596 3F9E  
                           l1588 3F42                             l1828 31A2  
                           l1860 32EE                             l1852 328C  
                           l1844 3244                             l1836 31D4  
                           l1916 36BE                             l1908 365A  
                           l1782 30A4                             l1774 3026  
                           l1766 2FAA                             l1694 38BC  
                           l1686 3884                             l1678 3846  
                           l1598 3FBE                             l1790 30C4  
                           l1870 3346                             l1862 330C  
                           l1854 3298                             l1846 324C  
                           l1838 321A                             l1918 3702  
                           l1784 30AA                             l1776 3034  
                           l1768 2FD8                             l1696 38D6  
                           l1688 3890                             l1872 3354  
                           l1864 330E                             l1856 32D4  
                           l1848 3258                             l1880 336C  
                           l1778 3046                             l1698 38E6  
                           l1794 30D8                             l1874 3356  
                           l1866 3312                             l1858 32E0  
                           l1890 3574                             l1882 3372  
                           l1796 3102                             l1788 30AE  
                           l1868 3336                             l1892 3580  
                           l1884 3382                             l1798 3104  
                           l1894 3590                             l1886 3444  
                           l1878 3368                             l1896 35A8  
                           l1888 3488                             u1000 3CC6  
                           u1001 3CC0                             u1010 3CC8  
                           u1100 3DE2                             u1020 3CF0  
                           u1101 3DDE                             u1021 3CEC  
                           u1110 3E28                             u1030 3D0E  
                           u1111 3E24                             u1031 3D0A  
                           u1200 3F14                             u1120 3E5E  
                           u1040 3D2E                             u1201 3F10  
                           u1121 3E5A                             u1041 3D2A  
                           u1210 3F28                             u1130 3E6E  
                           u1050 3D3C                             u1211 3F24  
                           u1131 3E6A                             u1051 3D38  
                           u1300 3730                             u1220 3F42  
                           u1140 3E9A                             u1060 3D4C  
                           u1301 372C                             u1221 3F3E  
                           u1141 3E96                             u1061 3D48  
                           u1310 3742                             u1230 3F7C  
                           u1150 3EAA                             u1070 3D7E  
                           u1311 373E                             u1231 3F78  
                           u1151 3EA6                             u1071 3D7A  
                           u1400 39EE                             u1320 3752  
                           u1240 3F8E                             u1160 3EC6  
                           u1080 3D8C                             u1401 39EA  
                           u1321 374E                             u1241 3F8A  
                           u1161 3EC2                             u1081 3D88  
                           u1410 3A00                             u1330 3792  
                           u1250 3F9E                             u1170 3ED6  
                           u1090 3DAA                             u1411 39FC  
                           u1331 378E                             u1251 3F9A  
                           u1171 3ED2                             u1091 3DA6  
                           u1500 3016                             u1420 3A2E  
                           u1340 37A4                             u1260 3FBE  
                           u1180 3EE8                             u1501 3012  
                           u1421 3A2A                             u1341 37A0  
                           u1261 3FBA                             u1181 3EE4  
                           _LATA 000F89                             u1510 3034  
                           u1430 3A44                             u1350 37B4  
                           u1270 3FD0                             u1190 3EFE  
                           _LATB 000F8A                             u1511 3030  
                           u1431 3A40                             u1351 37B0  
                           u1271 3FCC                             u1191 3EFA  
                           _LATC 000F8B                             u1520 3054  
                           u1440 3A58                             u1360 37EA  
                           u1280 3FEC                             u1600 3192  
                           u1521 3050                             u1441 3A54  
                           u1361 37E6                             u1281 3FE8  
                           u1601 318E                             u1290 2F50  
                           u1530 30A4                             u1450 3A72  
                           u1370 37FA                             u1610 31C6  
                           u1291 2F4C                             u1531 30A0  
                           u1451 3A6E                             u1371 37F6  
                           u1611 31C2                             u1460 3ABA  
                           u1380 3974                             u1540 30C4  
                           u1700 3354                             u1620 31D4  
                           u1461 3AB6                             u1541 30C0  
                           u1701 3350                             u1621 31D0  
                           u1470 3AE8                             u1390 39CE  
                           u1550 30F8                             u1630 3230  
                           u1471 3AE4                             u1391 39CA  
                           u1631 322C                             u1480 3B22  
                           u1560 3126                             u1640 3286  
                           u1720 3488                             u1481 3B1E  
                           u1385 396A                             u1561 3122  
                           u1641 3282                             u1721 3484  
                           u1490 2FD8                             u1570 313A  
                           u1650 32D0                             u1730 35F4  
                           u1491 2FD4                             u1571 3136  
                           u1555 30EE                             u1651 32CC  
                           u1731 35F0                             u1715 339C  
                           u1580 3162                             u1660 32EE  
                           u1740 3650                             u1581 315E  
                           u1661 32EA                             u1741 364C  
                           u1590 3182                             u1670 32FE  
                           u1750 36A6                             u1591 317E  
                           u1671 32FA                             u1751 36A2  
                           u1680 330C                             u1760 3702  
                           u1681 3308                             u1761 36FE  
                           u1690 3346                             u1691 3342  
                           u1777 35FE                             u1787 36B0  
                           _TMR2 000FBC                             _WPUB 000F61  
                           _main 3368                             prodh 000FF4  
                           prodl 000FF3                             start 0000  
                _PWM5_Initialize 2E56                     ___param_bank 000000  
     __end_of_PWM5_LoadDutyValue 2F2A   __size_of_OSCILLATOR_Initialize 000E  
  __end_of_OSCILLATOR_Initialize 2E26                    ___fltol@sign1 004D  
                __end_of___fladd 4000                            ?_main 0001  
                __end_of___flmul 3B40                  __end_of___flsub 2FAA  
                __end_of___fltol 31B4                            _T2CON 000FBA  
             _PWM4_LoadDutyValue 2EC6                            _TRISA 000F92  
                          _TRISB 000F93                            _TRISC 000F94  
            ?_PWM4_LoadDutyValue 0001                            main@i 0058  
                          main@k 0054                            status 000FD8  
                __initialization 2E34                     __end_of_main 3716  
           ??_PWM4_LoadDutyValue 0003          __end_of_PWM4_Initialize 2E56  
        __end_of_TMR2_Initialize 2E34                           ??_main 004F  
                  __activetblptr 000002                           _ADCON0 000FC2  
                         _ADCON1 000FC1                           _ADCON2 000FC0  
                         _ADRESH 000FC4                           _ADRESL 000FC3  
                         _CCPR4H 000F59                           _CCPR5H 000F56  
                         _CCPR4L 000F58                           _CCPR5L 000F55  
                         _ANSELA 000F38                           _ANSELB 000F39  
                         _ANSELC 000F3A          __end_of_PWM5_Initialize 2E6A  
                         _OSCCON 000FD3                 __end_of___xxtofl 3368  
                   _CCPTMRS1bits 000F48                           ___flge 2FAA  
                      ??___fladd 0035                        ??___flmul 001C  
                      ??___flsub 0045                        ??___fltol 0049  
                         isa$std 000001                           tblptru 000FF8  
       ADC_GetConversion@channel 0005                       ___flge@ff1 0014  
                     ___flge@ff2 0018                     ___xxtofl@arg 0010  
                   ___xxtofl@exp 000F                _SYSTEM_Initialize 2E80  
                   ___xxtofl@val 0006                       __accesstop 0060  
        __end_of__initialization 2E38               ?_SYSTEM_Initialize 0001  
                  ___rparam_used 000001                       ___fltol@f1 0045  
                 __pcstackCOMRAM 0001              ??_SYSTEM_Initialize 0001  
               ?_PWM4_Initialize 0001                 ?_TMR2_Initialize 0001  
    PWM4_LoadDutyValue@dutyValue 0001        __end_of_SYSTEM_Initialize 2E9A  
               ?_PWM5_Initialize 0001                          ?___flge 0014  
                        _CCP4CON 000F57                          _CCP5CON 000F54  
        __size_of_ADC_Initialize 0016                        ?___xxtofl 0006  
             _PWM5_LoadDutyValue 2EF8                          _OSCCON2 000FD2  
                        _OSCTUNE 000F9B              ?_PWM5_LoadDutyValue 0001  
           _ADC_InterruptHandler 005E                          __Hparam 0000  
                        __Lparam 0000                  __size_of___flge 0104  
                        ___fladd 3B40                          ___flmul 3716  
                        ___flsub 2F64                          ___fltol 30AE  
           ??_PWM5_LoadDutyValue 0003                          __pcinit 2E34  
                        __ramtop 0300                          __ptext0 3368  
                        __ptext1 31B4                          __ptext2 30AE  
                        __ptext3 2F64                          __ptext4 3B40  
                        __ptext5 3716                          __ptext6 2FAA  
                        __ptext7 2E80                          __ptext8 2E26  
                        __ptext9 2E56            _OSCILLATOR_Initialize 2E18  
                      _T2CONbits 000FBA                       ??___xxtofl 000A  
       ??_PIN_MANAGER_Initialize 0001       __size_of_SYSTEM_Initialize 001A  
           end_of_initialization 2E38                    __Lmediumconst 0000  
    __size_of_PWM4_LoadDutyValue 0032                      ___fladd@grs 003C  
                  ___xxtofl@sign 000E                      ___flmul@grs 0021  
                 __end_of___flge 30AE                   _ADC_Initialize 2E6A  
         ?_OSCILLATOR_Initialize 0001              start_initialization 2E34  
__size_of_PIN_MANAGER_Initialize 002C                         ??___flge 001C  
         __end_of_ADC_Initialize 2E80                        ___fladd@a 0031  
                      ___fladd@b 002D      PWM5_LoadDutyValue@dutyValue 0001  
                      ___flmul@a 0018                        ___flmul@b 0014  
                    __pbssCOMRAM 005E                        ___flsub@a 0041  
                      ___flsub@b 003D         __size_of_PWM4_Initialize 0014  
       __size_of_TMR2_Initialize 000E                __size_of___xxtofl 01B4  
         _PIN_MANAGER_Initialize 2E9A         __size_of_PWM5_Initialize 0014  
                       ?___fladd 002D                         ?___flmul 0014  
                       ?___flsub 003D                         ?___fltol 0045  
                ?_ADC_Initialize 0001                         _PIR1bits 000F9E  
    __size_of_PWM5_LoadDutyValue 0032                       _ADCON0bits 000FC2  
                      main@i_410 005A                        main@led_g 0050  
                      main@led_r 0052                      _INTCON2bits 000FF1  
              ??_PWM4_Initialize 0001                ??_TMR2_Initialize 0001  
                       __Hrparam 0000       __end_of_PWM4_LoadDutyValue 2EF8  
                       __Lrparam 0000                _ADC_GetConversion 2F2A  
        ??_OSCILLATOR_Initialize 0001               ?_ADC_GetConversion 0001  
               __size_of___fladd 04C0                 __size_of___flmul 042A  
               __size_of___flsub 0046                 __size_of___fltol 0106  
              ??_PWM5_Initialize 0001              ??_ADC_GetConversion 0003  
                       ___xxtofl 31B4                         __ptext10 2E42  
                       __ptext11 2E9A                         __ptext12 2E18  
                       __ptext13 2E6A                         __ptext14 2EF8  
                       __ptext15 2EC6                         __ptext16 2F2A  
                  __size_of_main 03AE        __end_of_ADC_GetConversion 2F64  
                       isa$xinst 000000                       _INTCONbits 000FF2  
        ?_PIN_MANAGER_Initialize 0001                 ??_ADC_Initialize 0001  
                  ___fladd@signs 0039   __end_of_PIN_MANAGER_Initialize 2EC6  
                   ___fladd@aexp 003A                     ___fladd@bexp 003B  
     __size_of_ADC_GetConversion 003A  
